Microchip Technology Inc, v1.26 (A)

Tool Name:
  c:\apps\microchip\xc16\v1.26\bin\bin\..\bin/elf-ld.exe

Command:
  -p24FJ256GB106 \
  -o \
  dist/default/production/Troop209-ames-nesi-02-26__Norm_.production.elf \
  -Lc:/apps/microchip/xc16/v1.26/bin/bin/.. \
  -Lc:/apps/microchip/xc16/v1.26/bin/bin/../../lib \
  -Lc:/apps/microchip/xc16/v1.26/bin/bin/../../support/PIC24E/gld \
  -Lc:/apps/microchip/xc16/v1.26/bin/bin/../../support/PIC24F/gld \
  -Lc:/apps/microchip/xc16/v1.26/bin/bin/../../support/PIC24H/gld \
  -Lc:/apps/microchip/xc16/v1.26/bin/bin/../../support/dsPIC30F/gld \
  -Lc:/apps/microchip/xc16/v1.26/bin/bin/../../support/dsPIC33E/gld \
  -Lc:/apps/microchip/xc16/v1.26/bin/bin/../../support/dsPIC33F/gld \
  build/default/production/_ext/1639979382/button.o \
  build/default/production/_ext/1639979382/camera.o \
  build/default/production/_ext/1639979382/co2.o \
  build/default/production/_ext/1639979382/datalog.o \
  build/default/production/_ext/1639979382/file.o \
  build/default/production/_ext/1639979382/led.o \
  build/default/production/_ext/1639979382/nesi.o \
  build/default/production/_ext/1639979382/powerDriver.o \
  build/default/production/_ext/1639979382/resistiveSensors.o \
  build/default/production/_ext/1639979382/sdcard.o \
  build/default/production/_ext/1639979382/system.o \
  build/default/production/_ext/1639979382/usb.o \
  build/default/production/_ext/1639979382/dateTime.o \
  build/default/production/_ext/1639979382/uart1.o \
  build/default/production/_ext/1639979382/uart2.o \
  build/default/production/_ext/1639979382/uart3.o \
  build/default/production/_ext/1639979382/camera2.o \
  build/default/production/_ext/1161271966/FSIO.o \
  build/default/production/_ext/1161271966/SD-SPI.o \
  build/default/production/_ext/1464792115/Analog2digital.o \
  build/default/production/_ext/1464792115/dateTime_RTC.o \
  build/default/production/_ext/1464792115/Encoder.o \
  build/default/production/_ext/1464792115/I2CDrivers.o \
  build/default/production/_ext/1464792115/PortBitDrivers.o \
  build/default/production/_ext/1464792115/RadiationSensorDriver.o \
  build/default/production/_ext/1464792115/RedGreenBlueDrivers.o \
  build/default/production/_ext/1464792115/SensorDirviers.o \
  build/default/production/_ext/1464792115/HdwrTest.o \
  build/default/production/_ext/1464792115/NVMDrivers.o \
  build/default/production/_ext/1464792115/OptoDrivers.o \
  build/default/production/_ext/1464792115/multiMotorDrivers.o \
  build/default/production/_ext/1464792115/TempHumidPresDrivers.o \
  build/default/production/_ext/1749136748/non_pwm_led.o \
  build/default/production/_ext/1749136748/main.o \
  build/default/production/_ext/1749136748/kernel13.o \
  build/default/production/_ext/1749136748/kernel14.o \
  build/default/production/_ext/1749136748/SD_support.o \
  build/default/production/_ext/1749136748/kernel15.o \
  build/default/production/_ext/1749136748/kernel16.o \
  build/default/production/_ext/1749136748/kernel17.o \
  build/default/production/_ext/1749136748/kernel18.o \
  build/default/production/_ext/1749136748/kernel12.o \
  build/default/production/_ext/1749136748/kernel19.o \
  build/default/production/_ext/1161263815/usb_descriptors.o \
  build/default/production/_ext/1161263815/usb_device.o \
  build/default/production/_ext/1161263815/usb_function_msd.o \
  build/default/production/_ext/1161263815/usb_function_cdc.o \
  --defsym=__MPLAB_BUILD=1 \
  -Tp24FJ256GB106.gld.00 \
  --heap=512 \
  --stack=16 \
  --check-sections \
  --data-init \
  --pack-data \
  --handles \
  --isr \
  --no-gc-sections \
  --fill-upper=0 \
  --stackguard=16 \
  --no-force-link \
  --smart-io \
  -Map=dist/default/production/Troop209-ames-nesi-02-26 (Norm).production.map \
  --report-mem \
  --memorysummary \
  dist/default/production/memoryfile.xml \
  -start-group \
  --library=lega-pic30-elf \
  --library=fastm-elf \
  --library=lega-c-elf \
  -end-group \


Optional library libpPIC24Fxxx.a not found
Archive member included because of file (symbol)

c:/apps/microchip/xc16/v1.26/bin/bin/../../lib\liblega-pic30-elf.a(crt0_standard.o)
                              (__resetPRI)
c:/apps/microchip/xc16/v1.26/bin/bin/../../lib\liblega-pic30-elf.a(data_init_standard.o)
                              c:/apps/microchip/xc16/v1.26/bin/bin/../../lib\liblega-pic30-elf.a(crt0_standard.o) (__data_init_standard)
c:/apps/microchip/xc16/v1.26/bin/bin/../../lib\liblega-pic30-elf.a(delay32.Leo)
                              build/default/production/_ext/1639979382/button.o (___delay32)
c:/apps/microchip/xc16/v1.26/bin/bin/../../lib\libfastm-elf.a(divsi3.eo)
                              build/default/production/_ext/1464792115/RadiationSensorDriver.o (___divsi3)
c:/apps/microchip/xc16/v1.26/bin/bin/../../lib\libfastm-elf.a(feqltle.eo)
                              build/default/production/_ext/1464792115/TempHumidPresDrivers.o (___eqsf2)
c:/apps/microchip/xc16/v1.26/bin/bin/../../lib\libfastm-elf.a(fgtge.eo)
                              build/default/production/_ext/1464792115/TempHumidPresDrivers.o (___gtsf2)
c:/apps/microchip/xc16/v1.26/bin/bin/../../lib\libfastm-elf.a(fixsfsi.eo)
                              build/default/production/_ext/1639979382/led.o (_(float, int, long long, short, float, short, int))
c:/apps/microchip/xc16/v1.26/bin/bin/../../lib\libfastm-elf.a(floatsisf.eo)
                              build/default/production/_ext/1464792115/TempHumidPresDrivers.o (___floatsisf)
c:/apps/microchip/xc16/v1.26/bin/bin/../../lib\libfastm-elf.a(floatunsisf.eo)
                              build/default/production/_ext/1639979382/led.o (___floatunsisf)
c:/apps/microchip/xc16/v1.26/bin/bin/../../lib\libfastm-elf.a(funpack.eo)
                              c:/apps/microchip/xc16/v1.26/bin/bin/../../lib\libfastm-elf.a(fixsfsi.eo) (__funpack)
c:/apps/microchip/xc16/v1.26/bin/bin/../../lib\libfastm-elf.a(divmoddi3.eo)
                              build/default/production/_ext/1639979382/co2.o (___udivdi3)
c:/apps/microchip/xc16/v1.26/bin/bin/../../lib\libfastm-elf.a(muldi3.eo)
                              build/default/production/_ext/1639979382/co2.o (___muldi3)
c:/apps/microchip/xc16/v1.26/bin/bin/../../lib\libfastm-elf.a(addsf3x.eo)
                              build/default/production/_ext/1464792115/TempHumidPresDrivers.o (___subsf3)
c:/apps/microchip/xc16/v1.26/bin/bin/../../lib\libfastm-elf.a(mulsf3x.eo)
                              build/default/production/_ext/1464792115/TempHumidPresDrivers.o (___mulsf3)
c:/apps/microchip/xc16/v1.26/bin/bin/../../lib\libfastm-elf.a(udivsi3x.eo)
                              build/default/production/_ext/1639979382/co2.o (___udivsi3)
c:/apps/microchip/xc16/v1.26/bin/bin/../../lib\libfastm-elf.a(umodsi3x.eo)
                              build/default/production/_ext/1161271966/FSIO.o (___umodsi3)
c:/apps/microchip/xc16/v1.26/bin/bin/../../lib\libfastm-elf.a(unpackdnrmfx.eo)
                              c:/apps/microchip/xc16/v1.26/bin/bin/../../lib\libfastm-elf.a(mulsf3x.eo) (__unpackdnrmf)
c:/apps/microchip/xc16/v1.26/bin/bin/../../lib\libfastm-elf.a(divsf3x.eo)
                              build/default/production/_ext/1639979382/led.o (___divsf3)
c:/apps/microchip/xc16/v1.26/bin/bin/../../lib\libfastm-elf.a(propnanfx.eo)
                              c:/apps/microchip/xc16/v1.26/bin/bin/../../lib\libfastm-elf.a(addsf3x.eo) (__propnanf)
c:/apps/microchip/xc16/v1.26/bin/bin/../../lib\libfastm-elf.a(unpackfx.eo)
                              c:/apps/microchip/xc16/v1.26/bin/bin/../../lib\libfastm-elf.a(divsf3x.eo) (__unpackf)
c:/apps/microchip/xc16/v1.26/bin/bin/../../lib\libfastm-elf.a(dnrmpackfx.eo)
                              c:/apps/microchip/xc16/v1.26/bin/bin/../../lib\libfastm-elf.a(addsf3x.eo) (__dnrmpackf)
c:/apps/microchip/xc16/v1.26/bin/bin/../../lib\libfastm-elf.a(spackfx.eo)
                              c:/apps/microchip/xc16/v1.26/bin/bin/../../lib\libfastm-elf.a(divsf3x.eo) (__spackf)
c:/apps/microchip/xc16/v1.26/bin/bin/../../lib\libfastm-elf.a(errno.eo)
                              c:/apps/microchip/xc16/v1.26/bin/bin/../../lib\libfastm-elf.a(divsf3x.eo) (_errno)
c:/apps/microchip/xc16/v1.26/bin/bin/../../lib\libfastm-elf.a(fcompare.eo)
                              c:/apps/microchip/xc16/v1.26/bin/bin/../../lib\libfastm-elf.a(feqltle.eo) (__fcompare)
c:/apps/microchip/xc16/v1.26/bin/bin/../../lib\libfastm-elf.a(floatdisf.eo)
                              c:/apps/microchip/xc16/v1.26/bin/bin/../../lib\libfastm-elf.a(floatsisf.eo) (___floatdisf)
c:/apps/microchip/xc16/v1.26/bin/bin/../../lib\libfastm-elf.a(floatundisf.eo)
                              c:/apps/microchip/xc16/v1.26/bin/bin/../../lib\libfastm-elf.a(floatunsisf.eo) (___floatundisf)
c:/apps/microchip/xc16/v1.26/bin/bin/../../lib\libfastm-elf.a(fpack.eo)
                              c:/apps/microchip/xc16/v1.26/bin/bin/../../lib\libfastm-elf.a(floatundisf.eo) (__fpack)
c:/apps/microchip/xc16/v1.26/bin/bin/../../lib\libfastm-elf.a(funpack2.eo)
                              c:/apps/microchip/xc16/v1.26/bin/bin/../../lib\libfastm-elf.a(fcompare.eo) (__funpack2)
c:/apps/microchip/xc16/v1.26/bin/bin/../../lib\libfastm-elf.a(umuldi3.eo)
                              c:/apps/microchip/xc16/v1.26/bin/bin/../../lib\libfastm-elf.a(muldi3.eo) (___umuldi3)
c:/apps/microchip/xc16/v1.26/bin/bin/../../lib\libfastm-elf.a(typefx.eo)
                              c:/apps/microchip/xc16/v1.26/bin/bin/../../lib\libfastm-elf.a(addsf3x.eo) (__typef)
c:/apps/microchip/xc16/v1.26/bin/bin/../../lib\liblega-c-elf.a(isspace.XXeso)
                              build/default/production/_ext/1749136748/SD_support.o (_isspace)
c:/apps/microchip/xc16/v1.26/bin/bin/../../lib\liblega-c-elf.a(tolower.XXeso)
                              build/default/production/_ext/1161271966/FSIO.o (_tolower)
c:/apps/microchip/xc16/v1.26/bin/bin/../../lib\liblega-c-elf.a(toupper.XXeso)
                              build/default/production/_ext/1161271966/FSIO.o (_toupper)
c:/apps/microchip/xc16/v1.26/bin/bin/../../lib\liblega-c-elf.a(atoi.XXeo)
                              build/default/production/_ext/1749136748/SD_support.o (_atoi)
c:/apps/microchip/xc16/v1.26/bin/bin/../../lib\liblega-c-elf.a(memcpy.XXeo)
                              build/default/production/_ext/1161263815/usb_function_msd.o (_memcpy)
c:/apps/microchip/xc16/v1.26/bin/bin/../../lib\liblega-c-elf.a(memset.XXeo)
                              build/default/production/_ext/1161271966/FSIO.o (_memset)
c:/apps/microchip/xc16/v1.26/bin/bin/../../lib\liblega-c-elf.a(puts.XXeo)
                              build/default/production/_ext/1749136748/SD_support.o (_puts)
c:/apps/microchip/xc16/v1.26/bin/bin/../../lib\liblega-c-elf.a(strcmp.XXeo)
                              build/default/production/_ext/1749136748/SD_support.o (_strcmp)
c:/apps/microchip/xc16/v1.26/bin/bin/../../lib\liblega-c-elf.a(strcpy.XXeo)
                              build/default/production/_ext/1161271966/FSIO.o (_strcpy)
c:/apps/microchip/xc16/v1.26/bin/bin/../../lib\liblega-c-elf.a(strlen.XXeo)
                              build/default/production/_ext/1161271966/FSIO.o (_strlen)
c:/apps/microchip/xc16/v1.26/bin/bin/../../lib\liblega-c-elf.a(strncpy.XXeo)
                              build/default/production/_ext/1161271966/FSIO.o (_strncpy)
c:/apps/microchip/xc16/v1.26/bin/bin/../../lib\liblega-c-elf.a(strtok.XXeo)
                              build/default/production/_ext/1749136748/SD_support.o (_strtok)
c:/apps/microchip/xc16/v1.26/bin/bin/../../lib\liblega-c-elf.a(xfiles.XXeo)
                              c:/apps/microchip/xc16/v1.26/bin/bin/../../lib\liblega-c-elf.a(puts.XXeo) (__Stdout)
c:/apps/microchip/xc16/v1.26/bin/bin/../../lib\liblega-c-elf.a(xstoul.XXeo)
                              c:/apps/microchip/xc16/v1.26/bin/bin/../../lib\liblega-c-elf.a(atoi.XXeo) (__Stoul)
c:/apps/microchip/xc16/v1.26/bin/bin/../../lib\liblega-c-elf.a(vsprintf.XXeo)
                              build/default/production/_ext/1639979382/usb.o (_vsprintf)
c:/apps/microchip/xc16/v1.26/bin/bin/../../lib\liblega-c-elf.a(xprintf.XXeo)
                              c:/apps/microchip/xc16/v1.26/bin/bin/../../lib\liblega-c-elf.a(vsprintf.XXeo) (__Printf)
c:/apps/microchip/xc16/v1.26/bin/bin/../../lib\liblega-c-elf.a(xputfld.XXeo)
                              c:/apps/microchip/xc16/v1.26/bin/bin/../../lib\liblega-c-elf.a(xprintf.XXeo) (__Putfld)
c:/apps/microchip/xc16/v1.26/bin/bin/../../lib\liblega-c-elf.a(fputc.XXelo)
                              c:/apps/microchip/xc16/v1.26/bin/bin/../../lib\liblega-c-elf.a(puts.XXeo) (_fputc)
c:/apps/microchip/xc16/v1.26/bin/bin/../../lib\liblega-c-elf.a(strchr.XXelo)
                              c:/apps/microchip/xc16/v1.26/bin/bin/../../lib\liblega-c-elf.a(xprintf.XXeo) (_strchr)
c:/apps/microchip/xc16/v1.26/bin/bin/../../lib\liblega-c-elf.a(xvacopy.XXelo)
                              c:/apps/microchip/xc16/v1.26/bin/bin/../../lib\liblega-c-elf.a(xprintf.XXeo) (__Vacopy)
c:/apps/microchip/xc16/v1.26/bin/bin/../../lib\liblega-c-elf.a(sprintf_cdnopuxX.XXeo)
                              build/default/production/_ext/1464792115/multiMotorDrivers.o (__sprintf_cdnopuxX)
c:/apps/microchip/xc16/v1.26/bin/bin/../../lib\liblega-c-elf.a(sscanf_cdnopuxX.XXeo)
                              build/default/production/_ext/1639979382/dateTime.o (__sscanf_cdnopuxX)
c:/apps/microchip/xc16/v1.26/bin/bin/../../lib\liblega-c-elf.a(xprintf_cdnopuxX.XXeo)
                              c:/apps/microchip/xc16/v1.26/bin/bin/../../lib\liblega-c-elf.a(sprintf_cdnopuxX.XXeo) (___Printf_cdnopuxX)
c:/apps/microchip/xc16/v1.26/bin/bin/../../lib\liblega-c-elf.a(xputfld_cdnopuxX.XXeo)
                              c:/apps/microchip/xc16/v1.26/bin/bin/../../lib\liblega-c-elf.a(xprintf_cdnopuxX.XXeo) (___Putfld_cdnopuxX)
c:/apps/microchip/xc16/v1.26/bin/bin/../../lib\liblega-c-elf.a(xscanf_cdnopuxX.XXeo)
                              c:/apps/microchip/xc16/v1.26/bin/bin/../../lib\liblega-c-elf.a(sscanf_cdnopuxX.XXeo) (___Scanf_cdnopuxX)
c:/apps/microchip/xc16/v1.26/bin/bin/../../lib\liblega-c-elf.a(sprintf_cdfFnopuxX.XXeo)
                              build/default/production/_ext/1464792115/TempHumidPresDrivers.o (__sprintf_cdfFnopuxX)
c:/apps/microchip/xc16/v1.26/bin/bin/../../lib\liblega-c-elf.a(xprintf_cdfFnopuxX.XXeo)
                              c:/apps/microchip/xc16/v1.26/bin/bin/../../lib\liblega-c-elf.a(sprintf_cdfFnopuxX.XXeo) (___Printf_cdfFnopuxX)
c:/apps/microchip/xc16/v1.26/bin/bin/../../lib\liblega-c-elf.a(xputfld_cdfFnopuxX.XXeo)
                              c:/apps/microchip/xc16/v1.26/bin/bin/../../lib\liblega-c-elf.a(xprintf_cdfFnopuxX.XXeo) (___Putfld_cdfFnopuxX)
c:/apps/microchip/xc16/v1.26/bin/bin/../../lib\liblega-c-elf.a(xldtob_cdfFnopuxX.XXeo)
                              c:/apps/microchip/xc16/v1.26/bin/bin/../../lib\liblega-c-elf.a(xputfld_cdfFnopuxX.XXeo) (___Ldtob_cdfFnopuxX)
c:/apps/microchip/xc16/v1.26/bin/bin/../../lib\liblega-c-elf.a(xgenld_cdfFnopuxX.XXeo)
                              c:/apps/microchip/xc16/v1.26/bin/bin/../../lib\liblega-c-elf.a(xldtob_cdfFnopuxX.XXeo) (___Genld_cdfFnopuxX)
c:/apps/microchip/xc16/v1.26/bin/bin/../../lib\liblega-c-elf.a(sprintf_cdfFnopsuxX.XXeo)
                              (__sprintf_cdfFnopsuxX)
c:/apps/microchip/xc16/v1.26/bin/bin/../../lib\liblega-c-elf.a(xprintf_cdfFnopsuxX.XXeo)
                              c:/apps/microchip/xc16/v1.26/bin/bin/../../lib\liblega-c-elf.a(sprintf_cdfFnopsuxX.XXeo) (___Printf_cdfFnopsuxX)
c:/apps/microchip/xc16/v1.26/bin/bin/../../lib\liblega-c-elf.a(xputfld_cdfFnopsuxX.XXeo)
                              c:/apps/microchip/xc16/v1.26/bin/bin/../../lib\liblega-c-elf.a(xprintf_cdfFnopsuxX.XXeo) (___Putfld_cdfFnopsuxX)
c:/apps/microchip/xc16/v1.26/bin/bin/../../lib\liblega-c-elf.a(xldtob_cdfFnopsuxX.XXeo)
                              c:/apps/microchip/xc16/v1.26/bin/bin/../../lib\liblega-c-elf.a(xputfld_cdfFnopsuxX.XXeo) (___Ldtob_cdfFnopsuxX)
c:/apps/microchip/xc16/v1.26/bin/bin/../../lib\liblega-c-elf.a(xgenld_cdfFnopsuxX.XXeo)
                              c:/apps/microchip/xc16/v1.26/bin/bin/../../lib\liblega-c-elf.a(xldtob_cdfFnopsuxX.XXeo) (___Genld_cdfFnopsuxX)
c:/apps/microchip/xc16/v1.26/bin/bin/../../lib\liblega-c-elf.a(sprintf_cdnopsuxX.XXeo)
                              build/default/production/_ext/1464792115/SensorDirviers.o (__sprintf_cdnopsuxX)
c:/apps/microchip/xc16/v1.26/bin/bin/../../lib\liblega-c-elf.a(xprintf_cdnopsuxX.XXeo)
                              c:/apps/microchip/xc16/v1.26/bin/bin/../../lib\liblega-c-elf.a(sprintf_cdnopsuxX.XXeo) (___Printf_cdnopsuxX)
c:/apps/microchip/xc16/v1.26/bin/bin/../../lib\liblega-c-elf.a(xputfld_cdnopsuxX.XXeo)
                              c:/apps/microchip/xc16/v1.26/bin/bin/../../lib\liblega-c-elf.a(xprintf_cdnopsuxX.XXeo) (___Putfld_cdnopsuxX)
c:/apps/microchip/xc16/v1.26/bin/bin/../../lib\liblega-c-elf.a(printf_s.XXeo)
                              build/default/production/_ext/1749136748/SD_support.o (__printf_s)
c:/apps/microchip/xc16/v1.26/bin/bin/../../lib\liblega-c-elf.a(sprintf_s.XXeo)
                              build/default/production/_ext/1749136748/kernel16.o (__sprintf_s)
c:/apps/microchip/xc16/v1.26/bin/bin/../../lib\liblega-c-elf.a(xprintf_s.XXeo)
                              c:/apps/microchip/xc16/v1.26/bin/bin/../../lib\liblega-c-elf.a(printf_s.XXeo) (___Printf_s)
c:/apps/microchip/xc16/v1.26/bin/bin/../../lib\liblega-c-elf.a(xputfld_s.XXeo)
                              c:/apps/microchip/xc16/v1.26/bin/bin/../../lib\liblega-c-elf.a(xprintf_s.XXeo) (___Putfld_s)
c:/apps/microchip/xc16/v1.26/bin/bin/../../lib\liblega-c-elf.a(div.XXeo)
                              c:/apps/microchip/xc16/v1.26/bin/bin/../../lib\liblega-c-elf.a(xgenld_cdfFnopuxX.XXeo) (_div)
c:/apps/microchip/xc16/v1.26/bin/bin/../../lib\liblega-c-elf.a(fflush.XXeo)
                              c:/apps/microchip/xc16/v1.26/bin/bin/../../lib\liblega-c-elf.a(fputc.XXelo) (__DNKfflush)
c:/apps/microchip/xc16/v1.26/bin/bin/../../lib\liblega-c-elf.a(fputs.XXeo)
                              c:/apps/microchip/xc16/v1.26/bin/bin/../../lib\liblega-c-elf.a(puts.XXeo) (_fputs)
c:/apps/microchip/xc16/v1.26/bin/bin/../../lib\liblega-c-elf.a(fwrite.XXeo)
                              c:/apps/microchip/xc16/v1.26/bin/bin/../../lib\liblega-c-elf.a(printf_s.XXeo) (_fwrite)
c:/apps/microchip/xc16/v1.26/bin/bin/../../lib\liblega-c-elf.a(ldiv.XXeo)
                              c:/apps/microchip/xc16/v1.26/bin/bin/../../lib\liblega-c-elf.a(xldtob_cdfFnopuxX.XXeo) (_ldiv)
c:/apps/microchip/xc16/v1.26/bin/bin/../../lib\liblega-c-elf.a(memchr.XXeo)
                              c:/apps/microchip/xc16/v1.26/bin/bin/../../lib\liblega-c-elf.a(xstoul.XXeo) (_memchr)
c:/apps/microchip/xc16/v1.26/bin/bin/../../lib\liblega-c-elf.a(strcspn.XXeo)
                              c:/apps/microchip/xc16/v1.26/bin/bin/../../lib\liblega-c-elf.a(strtok.XXeo) (_strcspn)
c:/apps/microchip/xc16/v1.26/bin/bin/../../lib\liblega-c-elf.a(strrchr.XXeo)
                              c:/apps/microchip/xc16/v1.26/bin/bin/../../lib\liblega-c-elf.a(fputs.XXeo) (_strrchr)
c:/apps/microchip/xc16/v1.26/bin/bin/../../lib\liblega-c-elf.a(strspn.XXeo)
                              c:/apps/microchip/xc16/v1.26/bin/bin/../../lib\liblega-c-elf.a(strtok.XXeo) (_strspn)
c:/apps/microchip/xc16/v1.26/bin/bin/../../lib\liblega-c-elf.a(xfwprep.XXeo)
                              c:/apps/microchip/xc16/v1.26/bin/bin/../../lib\liblega-c-elf.a(fputc.XXelo) (__Fwprep)
c:/apps/microchip/xc16/v1.26/bin/bin/../../lib\liblega-c-elf.a(xldtob.XXeo)
                              c:/apps/microchip/xc16/v1.26/bin/bin/../../lib\liblega-c-elf.a(xputfld.XXeo) (__Ldtob)
c:/apps/microchip/xc16/v1.26/bin/bin/../../lib\liblega-c-elf.a(xldunsca.XXeo)
                              c:/apps/microchip/xc16/v1.26/bin/bin/../../lib\liblega-c-elf.a(xldtob_cdfFnopuxX.XXeo) (__LDunscale)
c:/apps/microchip/xc16/v1.26/bin/bin/../../lib\liblega-c-elf.a(xlitob.XXeo)
                              c:/apps/microchip/xc16/v1.26/bin/bin/../../lib\liblega-c-elf.a(xputfld.XXeo) (__Litob)
c:/apps/microchip/xc16/v1.26/bin/bin/../../lib\liblega-c-elf.a(xputtxt.XXeo)
                              c:/apps/microchip/xc16/v1.26/bin/bin/../../lib\liblega-c-elf.a(xprintf.XXeo) (__Puttxt)
c:/apps/microchip/xc16/v1.26/bin/bin/../../lib\liblega-c-elf.a(fclose.XXelo)
                              c:/apps/microchip/xc16/v1.26/bin/bin/../../lib\liblega-c-elf.a(xfwprep.XXeo) (__Closreg)
c:/apps/microchip/xc16/v1.26/bin/bin/../../lib\liblega-c-elf.a(xatexit.XXelo)
                              c:/apps/microchip/xc16/v1.26/bin/bin/../../lib\liblega-c-elf.a(fclose.XXelo) (__Atexit)
c:/apps/microchip/xc16/v1.26/bin/bin/../../lib\liblega-c-elf.a(xdnorm.XXelo)
                              c:/apps/microchip/xc16/v1.26/bin/bin/../../lib\liblega-c-elf.a(xldunsca.XXeo) (__Dnorm)
c:/apps/microchip/xc16/v1.26/bin/bin/../../lib\liblega-c-elf.a(xldscale.XXelo)
                              c:/apps/microchip/xc16/v1.26/bin/bin/../../lib\liblega-c-elf.a(xldtob.XXeo) (__LDscale)
c:/apps/microchip/xc16/v1.26/bin/bin/../../lib\liblega-c-elf.a(xgetfld_cdnopuxX.XXeo)
                              c:/apps/microchip/xc16/v1.26/bin/bin/../../lib\liblega-c-elf.a(xscanf_cdnopuxX.XXeo) (___Getfld_cdnopuxX)
c:/apps/microchip/xc16/v1.26/bin/bin/../../lib\liblega-c-elf.a(free.XXeo)
                              c:/apps/microchip/xc16/v1.26/bin/bin/../../lib\liblega-c-elf.a(fclose.XXelo) (_free)
c:/apps/microchip/xc16/v1.26/bin/bin/../../lib\liblega-c-elf.a(malloc.XXeo)
                              c:/apps/microchip/xc16/v1.26/bin/bin/../../lib\liblega-c-elf.a(free.XXeo) (__Aldata)
c:/apps/microchip/xc16/v1.26/bin/bin/../../lib\liblega-c-elf.a(xgenld.XXeo)
                              c:/apps/microchip/xc16/v1.26/bin/bin/../../lib\liblega-c-elf.a(xldtob.XXeo) (__Genld)
c:/apps/microchip/xc16/v1.26/bin/bin/../../lib\liblega-c-elf.a(xgetint.XXeo)
                              c:/apps/microchip/xc16/v1.26/bin/bin/../../lib\liblega-c-elf.a(xgetfld_cdnopuxX.XXeo) (__Getint)
c:/apps/microchip/xc16/v1.26/bin/bin/../../lib\liblega-c-elf.a(xgetmem.XXeo)
                              c:/apps/microchip/xc16/v1.26/bin/bin/../../lib\liblega-c-elf.a(malloc.XXeo) (__Getmem)
c:/apps/microchip/xc16/v1.26/bin/bin/../../lib\liblega-c-elf.a(xgetstr.XXeo)
                              c:/apps/microchip/xc16/v1.26/bin/bin/../../lib\liblega-c-elf.a(xgetfld_cdnopuxX.XXeo) (__Getstr)
c:/apps/microchip/xc16/v1.26/bin/bin/../../lib\liblega-c-elf.a(xstoll.XXeo)
                              c:/apps/microchip/xc16/v1.26/bin/bin/../../lib\liblega-c-elf.a(xgetint.XXeo) (__Stoll)
c:/apps/microchip/xc16/v1.26/bin/bin/../../lib\liblega-c-elf.a(xstoull.XXeo)
                              c:/apps/microchip/xc16/v1.26/bin/bin/../../lib\liblega-c-elf.a(xgetint.XXeo) (__Stoull)
c:/apps/microchip/xc16/v1.26/bin/bin/../../lib\liblega-pic30-elf.a(close.Leo)
                              c:/apps/microchip/xc16/v1.26/bin/bin/../../lib\liblega-c-elf.a(fclose.XXelo) (_close)
c:/apps/microchip/xc16/v1.26/bin/bin/../../lib\liblega-pic30-elf.a(write.Leo)
                              c:/apps/microchip/xc16/v1.26/bin/bin/../../lib\liblega-c-elf.a(fflush.XXeo) (_write)
c:/apps/microchip/xc16/v1.26/bin/bin/../../lib\liblega-pic30-elf.a(remove.Leo)
                              c:/apps/microchip/xc16/v1.26/bin/bin/../../lib\liblega-c-elf.a(fclose.XXelo) (_remove)
c:/apps/microchip/xc16/v1.26/bin/bin/../../lib\liblega-pic30-elf.a(sbrk.Leo)
                              c:/apps/microchip/xc16/v1.26/bin/bin/../../lib\liblega-c-elf.a(xgetmem.XXeo) (_sbrk)
c:/apps/microchip/xc16/v1.26/bin/bin/../../lib\liblega-pic30-elf.a(c30_uart.Leo)
                              c:/apps/microchip/xc16/v1.26/bin/bin/../../lib\liblega-pic30-elf.a(write.Leo) (___C30_UART)
c:/apps/microchip/xc16/v1.26/bin/bin/../../lib\liblega-pic30-elf.a(brk.Lelo)
                              c:/apps/microchip/xc16/v1.26/bin/bin/../../lib\liblega-pic30-elf.a(sbrk.Leo) (_brk)
c:/apps/microchip/xc16/v1.26/bin/bin/../../lib\libfastm-elf.a(deqltle.eo)
                              c:/apps/microchip/xc16/v1.26/bin/bin/../../lib\liblega-c-elf.a(xldtob_cdfFnopuxX.XXeo) (___ltdf2)
c:/apps/microchip/xc16/v1.26/bin/bin/../../lib\libfastm-elf.a(dgtge.eo)
                              c:/apps/microchip/xc16/v1.26/bin/bin/../../lib\liblega-c-elf.a(xldtob_cdfFnopuxX.XXeo) (___gtdf2)
c:/apps/microchip/xc16/v1.26/bin/bin/../../lib\libfastm-elf.a(extendsfdf.eo)
                              c:/apps/microchip/xc16/v1.26/bin/bin/../../lib\liblega-c-elf.a(xputfld.XXeo) (___extendsfdf2)
c:/apps/microchip/xc16/v1.26/bin/bin/../../lib\libfastm-elf.a(fixdfsi.eo)
                              c:/apps/microchip/xc16/v1.26/bin/bin/../../lib\liblega-c-elf.a(xldtob_cdfFnopuxX.XXeo) (_(float, int, long long, double, float, short, int))
c:/apps/microchip/xc16/v1.26/bin/bin/../../lib\libfastm-elf.a(floatsidf.eo)
                              c:/apps/microchip/xc16/v1.26/bin/bin/../../lib\liblega-c-elf.a(xldtob_cdfFnopuxX.XXeo) (___floatsidf)
c:/apps/microchip/xc16/v1.26/bin/bin/../../lib\libfastm-elf.a(mulsi3.eo)
                              c:/apps/microchip/xc16/v1.26/bin/bin/../../lib\liblega-c-elf.a(xstoul.XXeo) (___mulsi3)
c:/apps/microchip/xc16/v1.26/bin/bin/../../lib\libfastm-elf.a(dpadd.eo)
                              c:/apps/microchip/xc16/v1.26/bin/bin/../../lib\liblega-c-elf.a(xldtob_cdfFnopuxX.XXeo) (___subdf3)
c:/apps/microchip/xc16/v1.26/bin/bin/../../lib\libfastm-elf.a(dpdiv.eo)
                              c:/apps/microchip/xc16/v1.26/bin/bin/../../lib\liblega-c-elf.a(xldtob_cdfFnopuxX.XXeo) (___divdf3)
c:/apps/microchip/xc16/v1.26/bin/bin/../../lib\libfastm-elf.a(dpmul.eo)
                              c:/apps/microchip/xc16/v1.26/bin/bin/../../lib\liblega-c-elf.a(xldtob_cdfFnopuxX.XXeo) (___muldf3)
c:/apps/microchip/xc16/v1.26/bin/bin/../../lib\libfastm-elf.a(dpsubs.eo)
                              c:/apps/microchip/xc16/v1.26/bin/bin/../../lib\libfastm-elf.a(dpmul.eo) (__dnsrnd)
c:/apps/microchip/xc16/v1.26/bin/bin/../../lib\libfastm-elf.a(dcompare.eo)
                              c:/apps/microchip/xc16/v1.26/bin/bin/../../lib\libfastm-elf.a(deqltle.eo) (__dcompare)
c:/apps/microchip/xc16/v1.26/bin/bin/../../lib\libfastm-elf.a(dtype.eo)
                              c:/apps/microchip/xc16/v1.26/bin/bin/../../lib\libfastm-elf.a(dcompare.eo) (__dtype)
c:/apps/microchip/xc16/v1.26/bin/bin/../../lib\libfastm-elf.a(dunpack.eo)
                              c:/apps/microchip/xc16/v1.26/bin/bin/../../lib\libfastm-elf.a(fixdfsi.eo) (__dunpack)
c:/apps/microchip/xc16/v1.26/bin/bin/../../lib\libfastm-elf.a(dunpack2.eo)
                              c:/apps/microchip/xc16/v1.26/bin/bin/../../lib\libfastm-elf.a(fixdfsi.eo) (__dunpack2exit)
c:/apps/microchip/xc16/v1.26/bin/bin/../../lib\libfastm-elf.a(floatdidf.eo)
                              c:/apps/microchip/xc16/v1.26/bin/bin/../../lib\libfastm-elf.a(floatsidf.eo) (___floatdidf)
c:/apps/microchip/xc16/v1.26/bin/bin/../../lib\libfastm-elf.a(floatundidf.eo)
                              c:/apps/microchip/xc16/v1.26/bin/bin/../../lib\libfastm-elf.a(floatdidf.eo) (___floatundidf)
c:/apps/microchip/xc16/v1.26/bin/bin/../../lib\libfastm-elf.a(dpack.eo)
                              c:/apps/microchip/xc16/v1.26/bin/bin/../../lib\libfastm-elf.a(floatundidf.eo) (__dpack)
c:/apps/microchip/xc16/v1.26/bin/bin/../../lib\libfastm-elf.a(dpropagateNaN.eo)
                              c:/apps/microchip/xc16/v1.26/bin/bin/../../lib\libfastm-elf.a(dunpack2.eo) (__dPropagateNaN)


xc16-ld 1.26 (A)

Program Memory  [Origin = 0x200, Length = 0x2a9f6]

section                    address   length (PC units)   length (bytes) (dec)
-------                    -------   -----------------   --------------------
.text                        0x200              0x4146          0x61e9  (25065)
.const                      0x4346               0x82a           0xc3f  (3135)
.text                       0x4b70             0x120b4         0x1b10e  (110862)
.dinit                     0x16c24               0x44c           0x672  (1650)
.text                      0x17070              0x35b8          0x5094  (20628)
.init.delay32              0x1a628                0x1c            0x2a  (42)
.text                      0x1a644                0x36            0x51  (81)
.shared.dinit              0x1a67a                 0x2             0x3  (3)

                 Total program memory used (bytes):        0x276ba  (161466) 61%


Ivt Memory  [Origin = 0x4, Length = 0xfc]

section                    address   length (PC units)   length (bytes) (dec)
-------                    -------   -----------------   --------------------
.ivt                           0x4                0xfc           0x17a  (378)


Aivt Memory  [Origin = 0x104, Length = 0xfc]

section                    address   length (PC units)   length (bytes) (dec)
-------                    -------   -----------------   --------------------
.aivt                        0x104                0xfc           0x17a  (378)


Data Memory  [Origin = 0x800, Length = 0x4000]

section                    address      alignment gaps    total length  (dec)
-------                    -------      --------------    -------------------
.nbss                        0x800                   0             0x2  (2)
.bss                         0x802                   0          0x25f6  (9718)
_04A1BC0059223713           0x2df8                   0           0x200  (512)
_04A1BD2059223713           0x2ff8                   0           0x200  (512)
.bss                        0x31f8                   0           0x1ae  (430)
.data                       0x33a6                   0           0x102  (258)
.bss                        0x34a8                   0            0x58  (88)
.data                       0x3500                   0            0xec  (236)
.data                       0x35ec                   0            0x12  (18)
.data                       0x35fe                   0             0x2  (2)
_04C3E7E05922371f           0x3600                   0            0x40  (64)
.bss                        0x3640                   0           0x390  (912)
.data                       0x39d0                   0           0x12c  (300)
.bss                        0x3afc                   0           0x130  (304)
.data                       0x3c2c                   0            0x26  (38)
.bss                        0x3c52                   0            0x66  (102)
.data                       0x3cb8                   0            0x6e  (110)
.data                       0x3d26                   0            0x10  (16)
.bss                        0x3d36                   0             0xc  (12)
.data                       0x3d42                   0             0xc  (12)
.bss                        0x3d4e                   0             0xa  (10)
.data                       0x3d58                   0            0x14  (20)
.bss                        0x3d6c                   0            0x1e  (30)
.data                       0x3d8a                   0             0xe  (14)
.bss                        0x3d98                   0             0x4  (4)
.bss                        0x3d9c                   0             0x2  (2)
.data                       0x3d9e                   0             0x6  (6)
.bss                        0x3da4                   0             0x2  (2)
.data                       0x3da6                   0             0x6  (6)
.bss                        0x3dac                   0             0x2  (2)
.heap                       0x3dae                   0           0x200  (512)

                 Total data memory used (bytes):         0x37ae  (14254) 86%


Dynamic Memory Usage

region                     address                      maximum length  (dec)
------                     -------                      ---------------------
heap                        0x3dae                               0x200  (512)
stack                       0x3fae                               0x852  (2130)

                 Maximum dynamic memory (bytes):          0xa52  (2642)


External Symbols in Data Memory (by address):

                    0x0802                  _sysBuffer
                    0x1002                  _RX_buffer
                    0x1802                  _TX_buffer
                    0x1842                  _gFileArray
                    0x18f6                  _gFileSlotOpen
                    0x18fa                  _lfnData
                    0x1f00                  _recordSearchName
                    0x2102                  _recordFoundName
                    0x2304                  _recordSearchLength
                    0x2306                  _fileFoundString
                    0x2510                  _gTimeCrtMS
                    0x2512                  _gTimeCrtTime
                    0x2514                  _gTimeCrtDate
                    0x2516                  _gTimeAccDate
                    0x2518                  _gTimeWrtTime
                    0x251a                  _gTimeWrtDate
                    0x251c                  _gNeedFATWrite
                    0x251e                  _gBufferOwner
                    0x2520                  _gNeedDataWrite
                    0x2521                  _nextClusterIsLast
                    0x2522                  _gBufferZeroed
                    0x2524                  _FatRootDirClusterValue
                    0x2528                  _FSerrno
                    0x252a                  _TempClusterCalc
                    0x252e                  _dirCleared
                    0x252f                  _recache
                    0x2530                  _tempCWDobj
                    0x256c                  _gFileTemp
                    0x25a8                  _cwd
                    0x25e4                  _gDiskData
                    0x2608                  _asciiFilename
                    0x260a                  _fileNameLength
                    0x260c                  _utf16Filename
                    0x260e                  _utfModeFileName
                    0x2610                  _twoByteMode
                    0x2612                  _tempDirectoryString
                    0x281c                  _defaultArray
                    0x2826                  _Raw_Temperature
                    0x282a                  _Raw_Pressure
                    0x282e                  _Raw_Humidity
                    0x2832                  _FLT_Temperature
                    0x2836                  _FLT_Pressure
                    0x283a                  _FLT_Humidity
                    0x283e                  _ConfigParams
                    0x2862                  _Config12
                    0x2886                  _THP_rbuf
                    0x28c6                  _THP_Data
                    0x28d6                  _t_fine
                    0x28da                  _varT1
                    0x28de                  _varT2
                    0x28e2                  _T
                    0x28e6                  _var1
                    0x28ee                  _var2
                    0x28f6                  _var3
                    0x28fe                  _var4
                    0x2906                  _var5
                    0x290e                  _var6
                    0x2916                  _var7
                    0x291e                  _var8
                    0x2926                  _p
                    0x292e                  _far1
                    0x2932                  _far2
                    0x2936                  _far3
                    0x293a                  _far4
                    0x293e                  _far5
                    0x2942                  _far6
                    0x2946                  _far7
                    0x294a                  _far8
                    0x294e                  _fp
                    0x2952                  _hum1
                    0x2956                  _hum2
                    0x295a                  _hum3
                    0x295e                  _hum4
                    0x2962                  _far_H1
                    0x2966                  _far_H2
                    0x296a                  _far_H3
                    0x296e                  _far_H4
                    0x2972                  _recBuf
                    0x2b72                  _USBDeviceState
                    0x2b74                  _USBActiveConfiguration
                    0x2b75                  _USBAlternateInterface
                    0x2b78                  _pBDTEntryEP0OutCurrent
                    0x2b7a                  _pBDTEntryEP0OutNext
                    0x2b7c                  _pBDTEntryOut
                    0x2b84                  _pBDTEntryIn
                    0x2b8c                  _shortPacketStatus
                    0x2b8d                  _controlTransferState
                    0x2b8e                  _inPipes
                    0x2b94                  _outPipes
                    0x2b9c                  _pDst
                    0x2b9e                  _RemoteWakeup
                    0x2ba0                  _USBBusIsSuspended
                    0x2ba2                  _USTATcopy
                    0x2ba3                  _endpoint_number
                    0x2ba4                  _BothEP0OutUOWNsSet
                    0x2ba6                  _ep_data_in
                    0x2baa                  _ep_data_out
                    0x2bae                  _USBStatusStageTimeoutCounter
                    0x2bb0                  _USBDeferStatusStagePacket
                    0x2bb2                  _USBStatusStageEnabledFlag1
                    0x2bb4                  _USBStatusStageEnabledFlag2
                    0x2bb6                  _USBDeferINDataStagePackets
                    0x2bb8                  _USBDeferOUTDataStagePackets
                    0x2bba                  _SetupPkt
                    0x2bc2                  _CtrlTrfData
                    0x2bca                  _msd_cbw
                    0x2bea                  _msd_csw
                    0x2bf8                  _msd_buffer
                    0x2df8                  _gDataBuffer
                    0x2ff8                  _gFATBuffer
                    0x32fa                  _cdc_notice
                    0x3304                  _cdc_data_rx
                    0x3344                  _cdc_data_tx
                    0x3384                  _line_coding
                    0x338c                  _cdc_rx_len
                    0x338d                  _cdc_trf_state
                    0x338e                  _pCDCSrc
                    0x3390                  _pCDCDst
                    0x3392                  _cdc_tx_len
                    0x3393                  _cdc_mem_type
                    0x3394                  _CDCDataOutHandle
                    0x3396                  _CDCDataInHandle
                    0x3398                  _control_signal_bitmap
                    0x339a                  _BaudRateGen
                    0x339e                  _dummy_encapsulated_cmd_response
                    0x33a6                  __Stdin
                    0x33ce                  __Stdout
                    0x33f6                  __Stderr
                    0x341e                  __Files
                    0x34a8                  _MSD_State
                    0x34a9                  _MSDCommandState
                    0x34aa                  _MSDReadState
                    0x34ab                  _MSDWriteState
                    0x34ac                  _MSDRetryAttempt
                    0x34ae                  _gblCBW
                    0x34ce                  _gblCBWLength
                    0x34cf                  _gblSenseData
                    0x34e2                  _ptrNextData
                    0x34e4                  _USBMSDOutHandle
                    0x34e6                  _USBMSDInHandle
                    0x34e8                  _MSBBufferIndex
                    0x34ea                  _gblMediaPresent
                    0x34ec                  _SoftDetach
                    0x34ee                  _MSDHostNoData
                    0x34f0                  _MSDCBWValid
                    0x34f8                  _gblNumBLKS
                    0x34fc                  _gblBLKLen
                    0x35ec                  _THP_Cmp1S1
                    0x35ed                  _THP_Cmp1S2
                    0x35ee                  _THP_Cmp1S3
                    0x35ef                  _THP_Cmp1S4
                    0x35f0                  _THP_Cfg2S1
                    0x35f8                  _THP_Cfg2S2
                    0x35fa                  _THP_Cfg2S3
                    0x35fc                  _THP_Cfg2S4
                    0x3600                  _BDT
                    0x3640                  _SNS_Temperature
                    0x3644                  _SNS_Pressure
                    0x3648                  _SNS_Humidity
                    0x364c                  _SNS_CLR_LIGHT
                    0x364e                  _SNS_RED_LIGHT
                    0x3650                  _SNS_BLU_LIGHT
                    0x3652                  _SNS_GRN_LIGHT
                    0x3654                  _SNS_EncPeriod
                    0x3656                  _SNS_EncodPos
                    0x3658                  _SNS_EncodPosPrev
                    0x365a                  _SNS_MovFlg
                    0x365c                  _SNS_EncodOffset
                    0x365e                  _SNS_EncDirFlag
                    0x3660                  _SNS_RadPeriod
                    0x3662                  _SNS_MotorDir
                    0x3664                  _SNS_CarouselPos
                    0x3666                  _SNS_LastRtn
                    0x3676                  _SNS_LastErr
                    0x3686                  _SNS_ErrorCnt
                    0x3696                  _SNS_Buffer
                    0x3716                  _EncoderErrorLog
                    0x3752                  _carouselAngle
                    0x3754                  _motorStepsPerSec
                    0x3756                  _duration
                    0x3758                  _SNS_virtEncoderBgn
                    0x375a                  _SNS_virtEncoderEnd
                    0x375c                  _SNS_virtEncoderNow
                    0x375e                  _oc8high
                    0x3760                  _oc8low
                    0x3762                  _oc8rise
                    0x3764                  _oc8fall
                    0x3766                  _oc8stat
                    0x3768                  _oc8cnt
                    0x376a                  _OC8State
                    0x376c                  _oc9high
                    0x376e                  _oc9low
                    0x3770                  _oc9rise
                    0x3772                  _oc9fall
                    0x3774                  _oc9stat
                    0x3776                  _oc9cnt
                    0x3778                  _OC9State
                    0x377a                  _oc8Buffer
                    0x37aa                  _oc9Buffer
                    0x37da                  _duration32
                    0x37de                  _durationLong
                    0x37e2                  _RTC_GET_TIME
                    0x37f2                  _I2C2_RESPONSE_BUFFER
                    0x3832                  _Buffer1
                    0x386a                  _Buffer2
                    0x38a2                  _EncTimer
                    0x38a4                  _flag
                    0x38a6                  _tdif
                    0x38a8                  _i
                    0x38aa                  _j
                    0x38ac                  _Rising
                    0x38b0                  _prevRising
                    0x38b4                  _Falling
                    0x38b8                  _prevFalling
                    0x38bc                  _period
                    0x38c0                  _fallperiod
                    0x38c4                  _position
                    0x38c8                  _EncPosition
                    0x38cc                  _EncPosition2
                    0x38d0                  _RECountEntry
                    0x38d4                  _RECountIC5
                    0x38d8                  _RECountIC6
                    0x38dc                  _RECountFlag
                    0x38e0                  _scaledPosition
                    0x38e4                  _scaledPeriod
                    0x38e8                  _scaledResult
                    0x38ec                  _ENC_OvflCnt
                    0x38ee                  _prevRisingArray
                    0x390e                  _prevFallingArray
                    0x392e                  _divisor
                    0x3932                  _quotient
                    0x3934                  _loopvar
                    0x3936                  _EncmSdelay
                    0x3938                  _EncStat
                    0x393a                  _I2C2_Diagnostics
                    0x395a                  _I2C2_Bit_TimeOutStDev
                    0x395c                  _I2C2_sbuf
                    0x396c                  _I2C2_rbuf
                    0x39ac                  _I2C2_Data
                    0x39ae                  _I2C2_Msg_Ack_cnt
                    0x39b0                  _I2C2_Msg_Nak_cnt
                    0x39b2                  _I2C2_Msg_Reset_cnt
                    0x39b4                  _I2C2_Msg_Req_cnt
                    0x39b6                  _I2C2_Snd_Byte_cnt_TO2
                    0x39b8                  _I2C2_Snd_Byte_cnt_TO3
                    0x39ba                  _I2C2_Snd_Byte_cnt_TO4
                    0x39bc                  _I2C2_Snd_Byte_cnt_ACK
                    0x39be                  _I2C2_Snd_Byte_cnt_NAK
                    0x39c0                  _I2C2_Get_Byte_cnt_TO2
                    0x39c2                  _I2C2_Get_Byte_cnt_TO3
                    0x39c4                  _I2C2_Get_Byte_cnt_TO4
                    0x39c6                  _I2C2_Get_Byte_cnt_ACK
                    0x39c8                  _I2C2_Get_Byte_cnt_NAK
                    0x39ca                  _I2c2_STop_Bit_Width_X1
                    0x39cc                  _I2c2_STop_Bit_Width_X2
                    0x39ce                  _I2c2_STop_Bit_WidthCnt
                    0x39d0                  _SDExtraFile
                    0x3abc                  _SNS_VpotCur
                    0x3abe                  _SNS_MotorPos
                    0x3ac0                  _SNS_MotorDes
                    0x3ac2                  _SNS_MotorDur
                    0x3ac4                  _RTC_I2C_TimeStamp
                    0x3ad6                  _xRTCTime
                    0x3ae8                  _iRTCTime
                    0x3afa                  _SNS_BufferPtr
                    0x3afc                  _config
                    0x3b3a                  _MDD_SDSPI_finalLBA
                    0x3b3e                  _gMediaSectorSize
                    0x3b40                  _gSDMode
                    0x3b74                  _readAllSensors
                    0x3b76                  _readTHPSensor
                    0x3b78                  _readRGBSensor
                    0x3b7a                  _readRadSensor
                    0x3b7c                  _readTemp2
                    0x3b7e                  _readXRTCValue
                    0x3b80                  _readIRTCValue
                    0x3b82                  _readVRTCValue
                    0x3b84                  _readOptoSensor
                    0x3b86                  _readNVMValue
                    0x3b88                  _pingXRTC
                    0x3b8a                  _writeXRTC
                    0x3b8c                  _writeIRTC
                    0x3b8e                  _toggleLED1
                    0x3b90                  _toggleLED2
                    0x3b92                  _toggleCAM1
                    0x3b94                  _toggleCAM2
                    0x3b96                  _readEncoderValue
                    0x3b98                  _writeSensors
                    0x3b9a                  _writeTempHumPres
                    0x3b9c                  _takePicture1
                    0x3b9e                  _takePicture2
                    0x3ba0                  _usbConnect
                    0x3ba2                  _delay05Sec
                    0x3ba4                  _delay15Sec
                    0x3ba6                  _delay30Sec
                    0x3ba8                  _stat
                    0x3baa                  _SNS_AltTemperature
                    0x3bbc                  _imageFile
                    0x3be8                  _imageFile2
                    0x3c04                  _t5prev
                    0x3c06                  _t5curr
                    0x3c08                  _CWbit
                    0x3c0a                  _CCWbit
                    0x3c0c                  _CWfilter
                    0x3c0e                  _CCWfilter
                    0x3c10                  _CWcount
                    0x3c12                  _CCWcount
                    0x3c14                  _CWprev
                    0x3c16                  _CCWprev
                    0x3c18                  _LoadCount
                    0x3c1a                  _optoZero
                    0x3c1c                  _QuadWidth
                    0x3c1e                  _quadCount
                    0x3c20                  _CWhistory
                    0x3c24                  _CCWhistory
                    0x3c28                  _Quadhistory
                    0x3c96                  _RGB_rbuf
                    0x3cb6                  _RGB_Status
                    0x3d0e                  _RGB_Cfg2S1
                    0x3d11                  _RGB_Cfg2S2
                    0x3d13                  _RGB_Cfg2S3
                    0x3d16                  _RGB_Cfg2S4
                    0x3d19                  _RGB_Cfg2S5
                    0x3d1e                  _RGB_ClrIrqSR
                    0x3d23                  _RGB_StatusSS
                    0x3d24                  _RGB_RdValS1
                    0x3d26                  _LUN
                    0x3d58                  _gLastFATSectorRead
                    0x3d5c                  _gLastDataSectorRead
                    0x3d60                  _cwdptr
                    0x3d62                  _I2C2_Bit_TimeOut
                    0x3d64                  _I2C2_Byte_TimeOut
                    0x3d66                  _I2C2_sbufptr
                    0x3d68                  _I2C2_rbufptr
                    0x3d6a                  _I2C2_diagnostic
                    0x3d8a                  _RTC_SET_LENGTH
                    0x3d8c                  _RTC_GET_LENGTH
                    0x3d8e                  _RTC_RSP_LENGTH
                    0x3d90                  _motLookUp
                    0x3d92                  _moveStatus
                    0x3d98                  __Aldata
                    0x3d9e                  _multiplier
                    0x3da0                  _enableMotor
                    0x3da6                  __Size_block
                    0x3daa                  ___C30_UART
                    0x3dac                  ___curbrk

External Symbols in Data Memory (by name):

                    0x3600                  _BDT
                    0x339a                  _BaudRateGen
                    0x2ba4                  _BothEP0OutUOWNsSet
                    0x3832                  _Buffer1
                    0x386a                  _Buffer2
                    0x3c0a                  _CCWbit
                    0x3c12                  _CCWcount
                    0x3c0e                  _CCWfilter
                    0x3c24                  _CCWhistory
                    0x3c16                  _CCWprev
                    0x3396                  _CDCDataInHandle
                    0x3394                  _CDCDataOutHandle
                    0x3c08                  _CWbit
                    0x3c10                  _CWcount
                    0x3c0c                  _CWfilter
                    0x3c20                  _CWhistory
                    0x3c14                  _CWprev
                    0x2862                  _Config12
                    0x283e                  _ConfigParams
                    0x2bc2                  _CtrlTrfData
                    0x38ec                  _ENC_OvflCnt
                    0x38c8                  _EncPosition
                    0x38cc                  _EncPosition2
                    0x3938                  _EncStat
                    0x38a2                  _EncTimer
                    0x3936                  _EncmSdelay
                    0x3716                  _EncoderErrorLog
                    0x283a                  _FLT_Humidity
                    0x2836                  _FLT_Pressure
                    0x2832                  _FLT_Temperature
                    0x2528                  _FSerrno
                    0x38b4                  _Falling
                    0x2524                  _FatRootDirClusterValue
                    0x3d62                  _I2C2_Bit_TimeOut
                    0x395a                  _I2C2_Bit_TimeOutStDev
                    0x3d64                  _I2C2_Byte_TimeOut
                    0x39ac                  _I2C2_Data
                    0x393a                  _I2C2_Diagnostics
                    0x39c6                  _I2C2_Get_Byte_cnt_ACK
                    0x39c8                  _I2C2_Get_Byte_cnt_NAK
                    0x39c0                  _I2C2_Get_Byte_cnt_TO2
                    0x39c2                  _I2C2_Get_Byte_cnt_TO3
                    0x39c4                  _I2C2_Get_Byte_cnt_TO4
                    0x39ae                  _I2C2_Msg_Ack_cnt
                    0x39b0                  _I2C2_Msg_Nak_cnt
                    0x39b4                  _I2C2_Msg_Req_cnt
                    0x39b2                  _I2C2_Msg_Reset_cnt
                    0x37f2                  _I2C2_RESPONSE_BUFFER
                    0x39bc                  _I2C2_Snd_Byte_cnt_ACK
                    0x39be                  _I2C2_Snd_Byte_cnt_NAK
                    0x39b6                  _I2C2_Snd_Byte_cnt_TO2
                    0x39b8                  _I2C2_Snd_Byte_cnt_TO3
                    0x39ba                  _I2C2_Snd_Byte_cnt_TO4
                    0x3d6a                  _I2C2_diagnostic
                    0x396c                  _I2C2_rbuf
                    0x3d68                  _I2C2_rbufptr
                    0x395c                  _I2C2_sbuf
                    0x3d66                  _I2C2_sbufptr
                    0x39ce                  _I2c2_STop_Bit_WidthCnt
                    0x39ca                  _I2c2_STop_Bit_Width_X1
                    0x39cc                  _I2c2_STop_Bit_Width_X2
                    0x3d26                  _LUN
                    0x3c18                  _LoadCount
                    0x3b3a                  _MDD_SDSPI_finalLBA
                    0x34e8                  _MSBBufferIndex
                    0x34f0                  _MSDCBWValid
                    0x34a9                  _MSDCommandState
                    0x34ee                  _MSDHostNoData
                    0x34aa                  _MSDReadState
                    0x34ac                  _MSDRetryAttempt
                    0x34ab                  _MSDWriteState
                    0x34a8                  _MSD_State
                    0x376a                  _OC8State
                    0x3778                  _OC9State
                    0x3c1c                  _QuadWidth
                    0x3c28                  _Quadhistory
                    0x38d0                  _RECountEntry
                    0x38dc                  _RECountFlag
                    0x38d4                  _RECountIC5
                    0x38d8                  _RECountIC6
                    0x3d0e                  _RGB_Cfg2S1
                    0x3d11                  _RGB_Cfg2S2
                    0x3d13                  _RGB_Cfg2S3
                    0x3d16                  _RGB_Cfg2S4
                    0x3d19                  _RGB_Cfg2S5
                    0x3d1e                  _RGB_ClrIrqSR
                    0x3d24                  _RGB_RdValS1
                    0x3cb6                  _RGB_Status
                    0x3d23                  _RGB_StatusSS
                    0x3c96                  _RGB_rbuf
                    0x3d8c                  _RTC_GET_LENGTH
                    0x37e2                  _RTC_GET_TIME
                    0x3ac4                  _RTC_I2C_TimeStamp
                    0x3d8e                  _RTC_RSP_LENGTH
                    0x3d8a                  _RTC_SET_LENGTH
                    0x1002                  _RX_buffer
                    0x282e                  _Raw_Humidity
                    0x282a                  _Raw_Pressure
                    0x2826                  _Raw_Temperature
                    0x2b9e                  _RemoteWakeup
                    0x38ac                  _Rising
                    0x39d0                  _SDExtraFile
                    0x3baa                  _SNS_AltTemperature
                    0x3650                  _SNS_BLU_LIGHT
                    0x3696                  _SNS_Buffer
                    0x3afa                  _SNS_BufferPtr
                    0x364c                  _SNS_CLR_LIGHT
                    0x3664                  _SNS_CarouselPos
                    0x365e                  _SNS_EncDirFlag
                    0x3654                  _SNS_EncPeriod
                    0x365c                  _SNS_EncodOffset
                    0x3656                  _SNS_EncodPos
                    0x3658                  _SNS_EncodPosPrev
                    0x3686                  _SNS_ErrorCnt
                    0x3652                  _SNS_GRN_LIGHT
                    0x3648                  _SNS_Humidity
                    0x3676                  _SNS_LastErr
                    0x3666                  _SNS_LastRtn
                    0x3ac0                  _SNS_MotorDes
                    0x3662                  _SNS_MotorDir
                    0x3ac2                  _SNS_MotorDur
                    0x3abe                  _SNS_MotorPos
                    0x365a                  _SNS_MovFlg
                    0x3644                  _SNS_Pressure
                    0x364e                  _SNS_RED_LIGHT
                    0x3660                  _SNS_RadPeriod
                    0x3640                  _SNS_Temperature
                    0x3abc                  _SNS_VpotCur
                    0x3758                  _SNS_virtEncoderBgn
                    0x375a                  _SNS_virtEncoderEnd
                    0x375c                  _SNS_virtEncoderNow
                    0x2bba                  _SetupPkt
                    0x34ec                  _SoftDetach
                    0x28e2                  _T
                    0x35f0                  _THP_Cfg2S1
                    0x35f8                  _THP_Cfg2S2
                    0x35fa                  _THP_Cfg2S3
                    0x35fc                  _THP_Cfg2S4
                    0x35ec                  _THP_Cmp1S1
                    0x35ed                  _THP_Cmp1S2
                    0x35ee                  _THP_Cmp1S3
                    0x35ef                  _THP_Cmp1S4
                    0x28c6                  _THP_Data
                    0x2886                  _THP_rbuf
                    0x1802                  _TX_buffer
                    0x252a                  _TempClusterCalc
                    0x2b74                  _USBActiveConfiguration
                    0x2b75                  _USBAlternateInterface
                    0x2ba0                  _USBBusIsSuspended
                    0x2bb6                  _USBDeferINDataStagePackets
                    0x2bb8                  _USBDeferOUTDataStagePackets
                    0x2bb0                  _USBDeferStatusStagePacket
                    0x2b72                  _USBDeviceState
                    0x34e6                  _USBMSDInHandle
                    0x34e4                  _USBMSDOutHandle
                    0x2bb2                  _USBStatusStageEnabledFlag1
                    0x2bb4                  _USBStatusStageEnabledFlag2
                    0x2bae                  _USBStatusStageTimeoutCounter
                    0x2ba2                  _USTATcopy
                    0x3d98                  __Aldata
                    0x341e                  __Files
                    0x3da6                  __Size_block
                    0x33f6                  __Stderr
                    0x33a6                  __Stdin
                    0x33ce                  __Stdout
                    0x3daa                  ___C30_UART
                    0x3dac                  ___curbrk
                    0x2608                  _asciiFilename
                    0x3752                  _carouselAngle
                    0x3304                  _cdc_data_rx
                    0x3344                  _cdc_data_tx
                    0x3393                  _cdc_mem_type
                    0x32fa                  _cdc_notice
                    0x338c                  _cdc_rx_len
                    0x338d                  _cdc_trf_state
                    0x3392                  _cdc_tx_len
                    0x3afc                  _config
                    0x2b8d                  _controlTransferState
                    0x3398                  _control_signal_bitmap
                    0x25a8                  _cwd
                    0x3d60                  _cwdptr
                    0x281c                  _defaultArray
                    0x3ba2                  _delay05Sec
                    0x3ba4                  _delay15Sec
                    0x3ba6                  _delay30Sec
                    0x252e                  _dirCleared
                    0x392e                  _divisor
                    0x339e                  _dummy_encapsulated_cmd_response
                    0x3756                  _duration
                    0x37da                  _duration32
                    0x37de                  _durationLong
                    0x3da0                  _enableMotor
                    0x2ba3                  _endpoint_number
                    0x2ba6                  _ep_data_in
                    0x2baa                  _ep_data_out
                    0x38c0                  _fallperiod
                    0x292e                  _far1
                    0x2932                  _far2
                    0x2936                  _far3
                    0x293a                  _far4
                    0x293e                  _far5
                    0x2942                  _far6
                    0x2946                  _far7
                    0x294a                  _far8
                    0x2962                  _far_H1
                    0x2966                  _far_H2
                    0x296a                  _far_H3
                    0x296e                  _far_H4
                    0x2306                  _fileFoundString
                    0x260a                  _fileNameLength
                    0x38a4                  _flag
                    0x294e                  _fp
                    0x251e                  _gBufferOwner
                    0x2522                  _gBufferZeroed
                    0x2df8                  _gDataBuffer
                    0x25e4                  _gDiskData
                    0x2ff8                  _gFATBuffer
                    0x1842                  _gFileArray
                    0x18f6                  _gFileSlotOpen
                    0x256c                  _gFileTemp
                    0x3d5c                  _gLastDataSectorRead
                    0x3d58                  _gLastFATSectorRead
                    0x3b3e                  _gMediaSectorSize
                    0x2520                  _gNeedDataWrite
                    0x251c                  _gNeedFATWrite
                    0x3b40                  _gSDMode
                    0x2516                  _gTimeAccDate
                    0x2514                  _gTimeCrtDate
                    0x2510                  _gTimeCrtMS
                    0x2512                  _gTimeCrtTime
                    0x251a                  _gTimeWrtDate
                    0x2518                  _gTimeWrtTime
                    0x34fc                  _gblBLKLen
                    0x34ae                  _gblCBW
                    0x34ce                  _gblCBWLength
                    0x34ea                  _gblMediaPresent
                    0x34f8                  _gblNumBLKS
                    0x34cf                  _gblSenseData
                    0x2952                  _hum1
                    0x2956                  _hum2
                    0x295a                  _hum3
                    0x295e                  _hum4
                    0x38a8                  _i
                    0x3ae8                  _iRTCTime
                    0x3bbc                  _imageFile
                    0x3be8                  _imageFile2
                    0x2b8e                  _inPipes
                    0x38aa                  _j
                    0x18fa                  _lfnData
                    0x3384                  _line_coding
                    0x3934                  _loopvar
                    0x3d90                  _motLookUp
                    0x3754                  _motorStepsPerSec
                    0x3d92                  _moveStatus
                    0x2bf8                  _msd_buffer
                    0x2bca                  _msd_cbw
                    0x2bea                  _msd_csw
                    0x3d9e                  _multiplier
                    0x2521                  _nextClusterIsLast
                    0x377a                  _oc8Buffer
                    0x3768                  _oc8cnt
                    0x3764                  _oc8fall
                    0x375e                  _oc8high
                    0x3760                  _oc8low
                    0x3762                  _oc8rise
                    0x3766                  _oc8stat
                    0x37aa                  _oc9Buffer
                    0x3776                  _oc9cnt
                    0x3772                  _oc9fall
                    0x376c                  _oc9high
                    0x376e                  _oc9low
                    0x3770                  _oc9rise
                    0x3774                  _oc9stat
                    0x3c1a                  _optoZero
                    0x2b94                  _outPipes
                    0x2926                  _p
                    0x2b78                  _pBDTEntryEP0OutCurrent
                    0x2b7a                  _pBDTEntryEP0OutNext
                    0x2b84                  _pBDTEntryIn
                    0x2b7c                  _pBDTEntryOut
                    0x3390                  _pCDCDst
                    0x338e                  _pCDCSrc
                    0x2b9c                  _pDst
                    0x38bc                  _period
                    0x3b88                  _pingXRTC
                    0x38c4                  _position
                    0x38b8                  _prevFalling
                    0x390e                  _prevFallingArray
                    0x38b0                  _prevRising
                    0x38ee                  _prevRisingArray
                    0x34e2                  _ptrNextData
                    0x3c1e                  _quadCount
                    0x3932                  _quotient
                    0x3b74                  _readAllSensors
                    0x3b96                  _readEncoderValue
                    0x3b80                  _readIRTCValue
                    0x3b86                  _readNVMValue
                    0x3b84                  _readOptoSensor
                    0x3b78                  _readRGBSensor
                    0x3b7a                  _readRadSensor
                    0x3b76                  _readTHPSensor
                    0x3b7c                  _readTemp2
                    0x3b82                  _readVRTCValue
                    0x3b7e                  _readXRTCValue
                    0x2972                  _recBuf
                    0x252f                  _recache
                    0x2102                  _recordFoundName
                    0x2304                  _recordSearchLength
                    0x1f00                  _recordSearchName
                    0x38e4                  _scaledPeriod
                    0x38e0                  _scaledPosition
                    0x38e8                  _scaledResult
                    0x2b8c                  _shortPacketStatus
                    0x3ba8                  _stat
                    0x0802                  _sysBuffer
                    0x3c06                  _t5curr
                    0x3c04                  _t5prev
                    0x28d6                  _t_fine
                    0x3b9c                  _takePicture1
                    0x3b9e                  _takePicture2
                    0x38a6                  _tdif
                    0x2530                  _tempCWDobj
                    0x2612                  _tempDirectoryString
                    0x3b92                  _toggleCAM1
                    0x3b94                  _toggleCAM2
                    0x3b8e                  _toggleLED1
                    0x3b90                  _toggleLED2
                    0x2610                  _twoByteMode
                    0x3ba0                  _usbConnect
                    0x260c                  _utf16Filename
                    0x260e                  _utfModeFileName
                    0x28e6                  _var1
                    0x28ee                  _var2
                    0x28f6                  _var3
                    0x28fe                  _var4
                    0x2906                  _var5
                    0x290e                  _var6
                    0x2916                  _var7
                    0x291e                  _var8
                    0x28da                  _varT1
                    0x28de                  _varT2
                    0x3b8c                  _writeIRTC
                    0x3b98                  _writeSensors
                    0x3b9a                  _writeTempHumPres
                    0x3b8a                  _writeXRTC
                    0x3ad6                  _xRTCTime

External Symbols in Program Memory (by address):

                  0x000200                  __resetPRI
                  0x00022c                  __psv_init
                  0x00023c                  __data_init_standard
                  0x00023c                  __data_init
                  0x0004ec                  __DefaultInterrupt
                  0x0005b2                  ___divsi3
                  0x0005d0                  ___eqsf2
                  0x0005d0                  ___lesf2
                  0x0005d0                  ___ltsf2
                  0x0005d4                  ___gesf2
                  0x0005d4                  ___gtsf2
                  0x0005d8                  ___fixsfsi
                  0x00061a                  ___floatsisf
                  0x000620                  ___floatunsisf
                  0x000624                  __funpack
                  0x00069a                  ___udivmoddi3
                  0x000780                  ___udivdi3
                  0x00078e                  ___umoddi3
                  0x000796                  ___divdi3
                  0x0007f6                  ___moddi3
                  0x000852                  ___muldi3
                  0x0008a4                  ___subsf3x
                  0x0008a4                  ___subsf3
                  0x0008b6                  ___addsf3x
                  0x0008b6                  ___addsf3
                  0x000a80                  ___mulsf3
                  0x000a80                  ___mulsf3x
                  0x000b8c                  ___udivsi3
                  0x000b8c                  ___udivsi3x
                  0x000c66                  ___umodsi3x
                  0x000c66                  ___umodsi3
                  0x000c6c                  __unpackdnrmf
                  0x000cca                  ___divsf3
                  0x000cca                  ___divsf3x
                  0x000e5c                  __sdivf
                  0x000e88                  __propnanf
                  0x000e9a                  __unpackf
                  0x000f00                  __dnrmpackf
                  0x000f54                  __spackf
                  0x000ffa                  __fcompare
                  0x001030                  ___floatdisf
                  0x001050                  ___floatundisf
                  0x0010ae                  __fpack
                  0x0010fa                  __funpack2
                  0x00110a                  ___umuldi3
                  0x00114e                  __typef
                  0x001182                  _isspace
                  0x001192                  _tolower
                  0x0011a0                  _toupper
                  0x0011ae                  _atoi
                  0x0011b4                  _memcpy
                  0x0011c2                  _memset
                  0x0011d0                  _puts
                  0x0011e6                  _strcmp
                  0x001206                  _strcpy
                  0x001212                  _strlen
                  0x00121e                  _strncpy
                  0x00123c                  _strtok
                  0x001270                  __Stoul
                  0x0013a4                  vsprintf.XXeo:_prout
                  0x0013b2                  _vsprintf
                  0x0013cc                  __Printf
                  0x001530                  __Putfld
                  0x0017fa                  _fputc
                  0x001846                  _strchr
                  0x001864                  __Vacopy
                  0x001868                  sscanf_cdnopuxX.XXeo:_scin
                  0x001880                  __sscanf_cdnopuxX
                  0x001892                  ___Scanf_cdnopuxX
                  0x001a22                  sprintf_cdfFnopsuxX.XXeo:_prout
                  0x001a30                  __sprintf_cdfFnopuxX
                  0x001a30                  __sprintf_cdnopuxX
                  0x001a30                  __sprintf_0
                  0x001a30                  __sprintf_cdnopsuxX
                  0x001a30                  __sprintf_cdfFnopsuxX
                  0x001a30                  __sprintf_s
                  0x001a4e                  ___Printf_cdfFnopsuxX
                  0x001a4e                  ___Printf_s
                  0x001a4e                  ___Printf_cdnopsuxX
                  0x001a4e                  ___Printf_cdfFnopuxX
                  0x001a4e                  ___Printf_cdnopuxX
                  0x001bb2                  ___Putfld_cdfFnopsuxX
                  0x001bb2                  ___Putfld_cdfFnopuxX
                  0x001bb2                  ___Putfld_s
                  0x001bb2                  ___Putfld_cdnopuxX
                  0x001bb2                  ___Putfld_cdnopsuxX
                  0x001e7c                  ___Ldtob_cdfFnopuxX
                  0x001e7c                  ___Ldtob_cdfFnopsuxX
                  0x0020cc                  ___Genld_cdfFnopuxX
                  0x0020cc                  ___Genld_cdfFnopsuxX
                  0x0022d4                  printf_s.XXeo:_prout
                  0x0022f0                  __printf_s
                  0x0022f0                  __printf_0
                  0x002300                  _div
                  0x002316                  __DNKfflush
                  0x00238c                  _fputs
                  0x00241c                  _fwrite
                  0x0024c4                  _ldiv
                  0x0024ee                  _memchr
                  0x002502                  _strcspn
                  0x002524                  _strrchr
                  0x002538                  _strspn
                  0x002558                  __Fwprep
                  0x0025e6                  __Ldtob
                  0x0029d8                  __LDunscale
                  0x002a2c                  __Litob
                  0x002c8a                  __Puttxt
                  0x002e06                  __Closreg
                  0x002e18                  _fclose
                  0x002ea8                  fclose.XXelo:_closeall
                  0x002ec8                  __Atexit
                  0x002ee0                  __Dnorm
                  0x002f78                  __LDscale
                  0x00306e                  ___Getfld_cdnopuxX
                  0x0031a6                  _free
                  0x003270                  _malloc
                  0x0032c4                  __Genld
                  0x003528                  __Getint
                  0x0037e4                  __Getmem
                  0x003832                  __Getstr
                  0x003a18                  __Stoll
                  0x003ad0                  __Stoull
                  0x003c68                  ___ltdf2
                  0x003c68                  ___ledf2
                  0x003c68                  ___eqdf2
                  0x003c72                  ___gedf2
                  0x003c72                  ___gtdf2
                  0x003c7c                  ___extendsfdf2
                  0x003cba                  ___fixdfsi
                  0x003d12                  ___floatsidf
                  0x003d18                  ___mulsi3
                  0x003d18                  ___mulp32peds3
                  0x003d18                  ___mulp32eds3
                  0x003d24                  ___subdf3
                  0x003d30                  ___adddf3
                  0x003dc6                  ___divdf3
                  0x003f24                  ___muldf3
                  0x004058                  __dxchg
                  0x004066                  __drshft
                  0x0040c0                  __dupchk
                  0x004122                  __drndex
                  0x00412c                  __dnsrnd
                  0x004158                  __dpakex
                  0x004166                  __dcompare
                  0x0041b8                  __dtype
                  0x0041dc                  __dunpack
                  0x00422a                  __dunpack2
                  0x00424c                  __dreturnNaN
                  0x004252                  __dunpack2exit
                  0x00425c                  ___floatdidf
                  0x00427c                  ___floatundidf
                  0x0042d2                  __dpack
                  0x00432a                  __dPropagateNaN
                  0x0043a8                  _SDEventFile
                  0x0043fc                  _SDDataFile
                  0x004450                  _SDConfigFile
                  0x0044a2                  _FSFullStep
                  0x0044a4                  _FSHalfStep
                  0x0044a6                  _FSEncoder
                  0x0045b0                  _device_dsc
                  0x0045c2                  _configDescriptor1
                  0x004624                  _sd000
                  0x004628                  _sd001
                  0x004662                  _sd002
                  0x004682                  _sd003
                  0x004698                  _USB_CD_Ptr
                  0x00469a                  _USB_SD_Ptr
                  0x0046a2                  _THP_MaxSend
                  0x0046a3                  _THP_MaxRead
                  0x0046a4                  _THP_MinRegAddr
                  0x0046a5                  _THP_MaxRegAdsr
                  0x0046a6                  _THP_RdBufLen
                  0x0046a7                  _THP_Cfg1_Ofs
                  0x0046a8                  _THP_Cfg2_Ofs
                  0x0046a9                  _THP_Cfg3_Ofs
                  0x0046aa                  _THP_Cfg4_Ofs
                  0x0046ab                  _THP_Cmp1L1
                  0x0046ac                  _THP_Cmp1L2
                  0x0046ad                  _THP_Cmp1L3
                  0x0046ae                  _THP_Cmp1L4
                  0x0046af                  _THP_Cfg2L1
                  0x0046b0                  _THP_Cfg2L2
                  0x0046b1                  _THP_Cfg2L3
                  0x0046b2                  _THP_Cfg2L4
                  0x004778                  _sdmmc_cmdtable
                  0x0047f0                  _BufLenOverflow
                  0x0047f2                  _StageNull
                  0x0047f4                  _Stage1
                  0x0047f6                  _Stage2
                  0x0047f8                  _Stage3
                  0x0047fa                  _Stage4
                  0x0047fc                  _Stage5
                  0x0047fe                  _Stage6
                  0x004800                  _Stage7
                  0x004802                  _Misc1
                  0x004804                  _Misc2
                  0x004806                  _Misc3
                  0x004808                  _Misc4
                  0x00480a                  _Misc5
                  0x00480c                  _Misc6
                  0x00480e                  _Misc7
                  0x004810                  _DrvrNull
                  0x004812                  _DrvrExtRTC
                  0x004814                  _DrvrIntRTC
                  0x004816                  _DrvrRedGrnBlu
                  0x004818                  _DrvrTemHumPrs
                  0x00481a                  _DrvrEncoder
                  0x00481c                  _DrvrRadiation
                  0x00481e                  _DrvrMotor
                  0x004820                  _DrvrNotAvail
                  0x004892                  _dateTime
                  0x004904                  _inq_resp
                  0x004928                  _usb
                  0x004944                  _portbitOn00
                  0x004946                  _portbitOn01
                  0x004948                  _portbitOn02
                  0x00494a                  _portbitOn03
                  0x00494c                  _portbitOn04
                  0x00494e                  _portbitOn05
                  0x004950                  _portbitOn06
                  0x004952                  _portbitOn07
                  0x004954                  _portbitOn08
                  0x004956                  _portbitOn09
                  0x004958                  _portbitOn10
                  0x00495a                  _portbitOn11
                  0x00495c                  _portbitOn12
                  0x00495e                  _portbitOn13
                  0x004960                  _portbitOn14
                  0x004962                  _portbitOn15
                  0x004964                  _portbitOf00
                  0x004966                  _portbitOf01
                  0x004968                  _portbitOf02
                  0x00496a                  _portbitOf03
                  0x00496c                  _portbitOf04
                  0x00496e                  _portbitOf05
                  0x004970                  _portbitOf06
                  0x004972                  _portbitOf07
                  0x004974                  _portbitOf08
                  0x004976                  _portbitOf09
                  0x004978                  _portbitOf10
                  0x00497a                  _portbitOf11
                  0x00497c                  _portbitOf12
                  0x00497e                  _portbitOf13
                  0x004980                  _portbitOf14
                  0x004982                  _portbitOf15
                  0x0049bc                  _file1
                  0x0049c6                  _file2
                  0x0049d0                  _file3
                  0x0049da                  _NullFile
                  0x0049f0                  _dataLog
                  0x004a50                  _powerDriverA
                  0x004a5e                  _powerDriverB
                  0x004a86                  _ErrNull
                  0x004a88                  _ErrStartBit
                  0x004a8a                  _ErrSndAdWt
                  0x004a8c                  _ErrSndStg
                  0x004a8e                  _ErrRestart
                  0x004a90                  _ErrSndAdRd
                  0x004a92                  _ErrGetStg
                  0x004a94                  _ErrStopBit
                  0x004a96                  _ErrPing
                  0x004a98                  _SBUFLEN
                  0x004a9a                  _RBUFLEN
                  0x004a9e                  _camera
                  0x004ab2                  _camera2
                  0x004ad8                  _resistiveSensors
                  0x004aea                  _RGB_MaxSend
                  0x004aeb                  _RGB_MaxRead
                  0x004aec                  _RGB_MinRegAddr
                  0x004aed                  _RGB_MaxRegAdsr
                  0x004aee                  _RGB_Cfg2L1
                  0x004aef                  _RGB_Cfg2L2
                  0x004af0                  _RGB_Cfg2L3
                  0x004af1                  _RGB_Cfg2L4
                  0x004af2                  _RGB_Cfg2L5
                  0x004af3                  _RGB_ClrIrqLR
                  0x004af4                  _RGB_StatusLS
                  0x004af5                  _RGB_StatusL1
                  0x004af6                  _RGB_RdValL1
                  0x004afc                  _uart1
                  0x004b0c                  _uart2
                  0x004b1c                  _uart3
                  0x004b2c                  _co2
                  0x004b48                  _button
                  0x004b52                  _ledB
                  0x004b56                  _ledR
                  0x004b5a                  _led1
                  0x004b5e                  _led2
                  0x004b62                  _system
                  0x004b68                  _sdcard
                  0x004b6c                  _nesi
                  0x004b6e                  _RTC_ADDR
                  0x004b70                  _FSInit
                  0x004c2c                  _FILEfind
                  0x0058b2                  _FILEopen
                  0x0059f2                  _FILEget_next_cluster
                  0x005ad2                  _DISKmount
                  0x005b90                  _LoadMBR
                  0x005dee                  _LoadBootSector
                  0x006432                  _GetFullClusterNumber
                  0x00645a                  _FSCreateMBR
                  0x0066d4                  _FSformat
                  0x0079aa                  _Write_File_Entry
                  0x007a88                  _FAT_erase_cluster_chain
                  0x007b80                  _Cache_File_Entry
                  0x007dea                  _CreateFileEntry
                  0x00811c                  _CreateFirstCluster
                  0x008198                  _FindEmptyEntries
                  0x0082e6                  _PopulateEntries
                  0x0083b6                  _Alias_LFN_Object
                  0x0087ee                  _CacheTime
                  0x00892e                  _FILEallocate_new_cluster
                  0x0089ce                  _FATfindEmptyCluster
                  0x008ada                  _FSGetDiskProperties
                  0x008cce                  _FSfclose
                  0x008dd2                  _Fill_File_Object
                  0x008f32                  _Fill_LFN_Object
                  0x008fd0                  _LoadDirAttrib
                  0x009050                  _FILEerase
                  0x009176                  _FSrename
                  0x0092a2                  _wFSrename
                  0x0092be                  _wFSfopen
                  0x0092da                  _FSfopen
                  0x0096a6                  _FSftell
                  0x0096ba                  _FSremove
                  0x0097ee                  _wFSremove
                  0x009806                  _FSrewind
                  0x00983c                  _FSerror
                  0x009848                  _FileObjectCopy
                  0x00987e                  _FILECreateHeadCluster
                  0x00992e                  _EraseCluster
                  0x0099e8                  _ReadByte
                  0x0099f8                  _ReadWord
                  0x009a2c                  _ReadDWord
                  0x009a72                  _Cluster2Sector
                  0x009b52                  _FSattrib
                  0x009bf0                  _FSfwrite
                  0x009ece                  _flushData
                  0x009f28                  _FSfeof
                  0x009f50                  _FSfread
                  0x00a186                  _FormatFileName
                  0x00a588                  _FormatDirName
                  0x00aa12                  _ValidateChars
                  0x00ad12                  _FSfseek
                  0x00afa4                  _ReadFAT
                  0x00b3c0                  _WriteFAT
                  0x00b82a                  _FSchdir
                  0x00b83a                  _wFSchdir
                  0x00b858                  _chdirhelper
                  0x00bd26                  _FSgetcwd
                  0x00c412                  _wFSgetcwd
                  0x00c42e                  _GetPreviousEntry
                  0x00c758                  _FSmkdir
                  0x00c768                  _wFSmkdir
                  0x00c786                  _mkdirhelper
                  0x00cd4a                  _CreateDIR
                  0x00ce3c                  _writeDotEntries
                  0x00cfca                  _FSrmdir
                  0x00cfde                  _wFSrmdir
                  0x00d000                  _rmdirhelper
                  0x00d9f6                  _eraseDir
                  0x00da7c                  _FindFirst
                  0x00dcfc                  _FindNext
                  0x00df1c                  _wFindFirst
                  0x00df3c                  _FSputc
                  0x00df5a                  _str_put_n_chars
                  0x00df8c                  _FSfprintf
                  0x00dfa4                  _FSvfprintf
                  0x00fb32                  _getRTCTimeStamp
                  0x00fdd6                  _setI2C2_RTCTime
                  0x00feb6                  _getI2C2_RTCTime
                  0x00ff92                  _setPIC_RTCTime
                  0x010070                  _newCalendarAndClock
                  0x010b68                  _setSystemCalendarAndClock
                  0x010ca4                  _getSystemCalendarAndClock
                  0x010d4a                  _getMilisecondCount
                  0x010d56                  _Wait
                  0x010d8a                  __T4Interrupt
                  0x010dbc                  __RTCCInterrupt
                  0x010e10                  build/default/production/_ext/1639979382/dateTime.o:_initialize
                  0x010e74                  build/default/production/_ext/1639979382/dateTime.o:_newDateAndTime
                  0x0111ce                  build/default/production/_ext/1639979382/dateTime.o:_toDateAndTime
                  0x0111f8                  build/default/production/_ext/1639979382/dateTime.o:_addDateAndTimes
                  0x011248                  build/default/production/_ext/1639979382/dateTime.o:_subtractDateAndTimes
                  0x011298                  build/default/production/_ext/1639979382/dateTime.o:_getTimeStamp
                  0x011334                  build/default/production/_ext/1639979382/dateTime.o:_dateAndTimeToTimeStamp
                  0x011446                  build/default/production/_ext/1639979382/dateTime.o:_parseTimeStamp
                  0x0114a6                  build/default/production/_ext/1639979382/dateTime.o:_getDateAndTime
                  0x01150c                  build/default/production/_ext/1639979382/dateTime.o:_setDateAndTime
                  0x01154c                  _compareDateAndTime
                  0x0115a8                  _THP_SetBuffer
                  0x0115d4                  _Combine2
                  0x01160a                  _Combine3
                  0x011678                  _THP_LoadConfigs
                  0x01177a                  _THP_compensate_T_int32
                  0x01184e                  _THP_compensate_P_int64
                  0x011b58                  _THP_compenstate_P_double
                  0x011d74                  _THP_compensate_H_int32
                  0x011f0c                  _compensate_H_double
                  0x012088                  _THP_LoadRawValues
                  0x012116                  _diagRecord
                  0x012418                  _initTHP
                  0x01245a                  _readTHP
                  0x01250c                  _USBDeviceInit
                  0x0125fa                  __USB1Interrupt
                  0x0127b0                  _USBEnableEndpoint
                  0x0127ea                  _USBTransferOnePacket
                  0x012884                  _USBStallEndpoint
                  0x0128f4                  _USBCancelIO
                  0x0129a8                  _USBDeviceDetach
                  0x0129b6                  _USBDeviceAttach
                  0x0129e8                  _USBCtrlEPAllowStatusStage
                  0x012a50                  _USBCtrlEPAllowDataStage
                  0x013460                  _USBMSDInit
                  0x0134f8                  _USBCheckMSDRequest
                  0x0135d2                  _MSDTasks
                  0x0137d6                  _MSDProcessCommand
                  0x013862                  _MSDProcessCommandMediaAbsent
                  0x0138c8                  _MSDProcessCommandMediaPresent
                  0x013bb2                  _MSDReadHandler
                  0x013d44                  _MSDWriteHandler
                  0x013f56                  _ResetSenseData
                  0x014000                  _MSDCheckForErrorCases
                  0x0140fe                  _MSDErrorHandler
                  0x0141fe                  _MDD_SDSPI_MediaDetect
                  0x014214                  _MDD_SDSPI_ReadSectorSize
                  0x01421c                  _MDD_SDSPI_ReadCapacity
                  0x014226                  _MDD_SDSPI_InitIO
                  0x014234                  _MDD_SDSPI_ShutdownMedia
                  0x014240                  _SendMMCCmd
                  0x014362                  _MDD_SDSPI_SectorRead
                  0x0143a6                  _MDD_SDSPI_AsyncReadTasks
                  0x014582                  _MDD_SDSPI_AsyncWriteTasks
                  0x0147dc                  _MDD_SDSPI_SectorWrite
                  0x014838                  _MDD_SDSPI_WriteProtectState
                  0x014844                  _Delayms
                  0x01488c                  _CloseSPIM
                  0x01489a                  _WriteSPIM
                  0x0148b8                  _MDD_SDSPI_ReadMedia
                  0x0148d0                  _OpenSPIM
                  0x0148ee                  _InitSPISlowMode
                  0x014944                  _MDD_SDSPI_MediaInitialize
                  0x014cf6                  _initStepper
                  0x014de0                  _setOnStepDisable
                  0x014dec                  _setOffStepDisable
                  0x014df8                  _setOnStepDirection
                  0x014e04                  _setOffStepDirection
                  0x014e10                  _setOnHalfStep
                  0x014e1c                  _setOffHalfStep
                  0x014e28                  _ErrorCheck
                  0x014f84                  _positionPattern
                  0x015146                  _MotorStepper
                  0x0152b0                  _checkMotor
                  0x01548c                  _multiMotorMove
                  0x01564e                  _moveCarousel
                  0x0156de                  _checkCarousel
                  0x015762                  _Read_Switch_Align
                  0x015794                  _Read_Switch_Home
                  0x0157c2                  _setOutputCam1
                  0x0157f2                  _setOnCam1
                  0x0157fc                  _setOffCam1
                  0x015806                  _initializeCam1
                  0x01580c                  _setOutputCam2
                  0x01583c                  _setOnCam2
                  0x015846                  _setOffCam2
                  0x015850                  _initializeCam2
                  0x015856                  _setOutputLED1
                  0x0158ae                  _setOnLED1
                  0x0158b8                  _setOffLED1
                  0x0158c2                  _initializeLED1
                  0x0158c8                  _setOutputLED2
                  0x015920                  _setOnLED2
                  0x01592a                  _setOffLED2
                  0x015934                  _initializeLED2
                  0x01593a                  _setOutputServo
                  0x01596a                  _setOnServo
                  0x015974                  _setOffServo
                  0x01597e                  _initializeServo
                  0x015984                  _setOutputMotCW
                  0x0159b6                  _setOnMotCW
                  0x0159c0                  _setOffMotCW
                  0x0159ca                  _initializeMotCW
                  0x0159d0                  _setOutputMotCCW
                  0x015a02                  _setOnMotCCW
                  0x015a0c                  _setOffMotCCW
                  0x015a16                  _initializeMotCCW
                  0x015a1c                  _setOutputMotEna
                  0x015a4e                  _setOnMotEna
                  0x015a58                  _setOffMotEna
                  0x015a62                  _initializeMotEna
                  0x015a68                  _setOutput6Volt
                  0x015a98                  _setOn6Volt
                  0x015aa2                  _setOff6Volt
                  0x015aac                  _initialize6Volt
                  0x015ab2                  _setOutputDiag
                  0x015ae4                  _setOnDiag
                  0x015aee                  _setOffDiag
                  0x015af8                  _initializeDiag
                  0x015afe                  _setOutputMotorEn
                  0x015b30                  _setOnMotorEn
                  0x015b3a                  _setOffMotorEn
                  0x015b44                  _initializeMotorEn
                  0x015b4a                  _setOutputRG9
                  0x015b7c                  _setOnRG9
                  0x015b86                  _setOffRG9
                  0x015b90                  _initializeRG9
                  0x015b96                  _setUart1Tx
                  0x015bec                  _setUart1Rx
                  0x015c42                  _setUart2Tx
                  0x015c98                  _setUart2Rx
                  0x015cee                  _i2c2_init
                  0x015d0e                  _i2c2_reset_bus
                  0x015d3a                  _i2c2_start
                  0x015d66                  _i2c2_restart
                  0x015dbc                  _i2c2_stop
                  0x015e1c                  _i2c2_send_addr_rd
                  0x015e36                  _i2c2_send_addr_wt
                  0x015e50                  _i2c2_send_byte_ack
                  0x015ec8                  _i2c2_read_byte_ack
                  0x015f62                  _i2c2_send_string
                  0x015faa                  _i2c2_read_string
                  0x01601e                  _i2c2_Diag_Report
                  0x016066                  _i2c2_Diag_Clear
                  0x0160b4                  _i2c2_TalkToDevice
                  0x01628a                  __T2Interrupt
                  0x0166c6                  build/default/production/_ext/1639979382/camera.o:_turnOff
                  0x0166d0                  build/default/production/_ext/1639979382/camera.o:_turnOn
                  0x0166da                  build/default/production/_ext/1639979382/camera.o:_initialize
                  0x0166f0                  build/default/production/_ext/1639979382/camera.o:_retrievePic
                  0x016742                  _getStatus
                  0x016ba0                  build/default/production/_ext/1639979382/camera2.o:_turnOff2
                  0x016baa                  build/default/production/_ext/1639979382/camera2.o:_turnOn2
                  0x016bb4                  build/default/production/_ext/1639979382/camera2.o:_initialize2
                  0x016bca                  build/default/production/_ext/1639979382/camera2.o:_retrievePic2
                  0x016c1c                  _getStatus2
                  0x017070                  _initEncoder
                  0x0170c2                  _readEncoder
                  0x0173a2                  _monitorEncoder
                  0x017402                  _calibrateEncoder
                  0x01749a                  _USBCheckCDCRequest
                  0x01759c                  _CDCInitEP
                  0x0175ea                  _USBCDCEventHandler
                  0x01762c                  _getsUSBUSART
                  0x0176a0                  _putUSBUSART
                  0x0176cc                  _putsUSBUSART
                  0x017722                  _putrsUSBUSART
                  0x017778                  _CDCTxService
                  0x0178ee                  build/default/production/_ext/1749136748/SD_support.o:_write1
                  0x01790e                  build/default/production/_ext/1749136748/SD_support.o:_write2
                  0x01792e                  build/default/production/_ext/1749136748/SD_support.o:_write3
                  0x01794e                  build/default/production/_ext/1749136748/SD_support.o:_writeln1
                  0x01796a                  build/default/production/_ext/1749136748/SD_support.o:_writeln2
                  0x017986                  build/default/production/_ext/1749136748/SD_support.o:_writeln3
                  0x017b8c                  _get1
                  0x017ba8                  _CheckFile
                  0x017bcc                  _initRadiation
                  0x017c54                  _readRadiation
                  0x017d22                  _readRad
                  0x017e76                  _initRad
                  0x017eca                  build/default/production/_ext/1639979382/uart1.o:_initUart
                  0x017f6a                  build/default/production/_ext/1639979382/uart1.o:_getRxSize
                  0x017fa4                  __U1RXInterrupt
                  0x017fe6                  __U1TXInterrupt
                  0x01801c                  build/default/production/_ext/1639979382/uart1.o:_sendFrom
                  0x01808a                  build/default/production/_ext/1639979382/uart1.o:_setBaudRate
                  0x0180a8                  build/default/production/_ext/1639979382/uart1.o:_copyFrom
                  0x018112                  build/default/production/_ext/1639979382/uart1.o:_receiveFrom
                  0x018168                  build/default/production/_ext/1639979382/uart1.o:_dropFrom
                  0x018196                  build/default/production/_ext/1639979382/uart1.o:_flush
                  0x0181a0                  build/default/production/_ext/1639979382/uart3.o:_initUart
                  0x018240                  build/default/production/_ext/1639979382/uart3.o:_getRxSize
                  0x01827a                  __U3RXInterrupt
                  0x0182bc                  __U3TXInterrupt
                  0x0182f2                  build/default/production/_ext/1639979382/uart3.o:_sendFrom
                  0x018360                  build/default/production/_ext/1639979382/uart3.o:_setBaudRate
                  0x01837e                  build/default/production/_ext/1639979382/uart3.o:_copyFrom
                  0x0183e8                  build/default/production/_ext/1639979382/uart3.o:_receiveFrom
                  0x01843e                  build/default/production/_ext/1639979382/uart3.o:_dropFrom
                  0x01846c                  build/default/production/_ext/1639979382/uart3.o:_flush
                  0x018476                  build/default/production/_ext/1639979382/uart2.o:_initUart
                  0x018514                  build/default/production/_ext/1639979382/uart2.o:_getRxSize
                  0x01854e                  __U2RXInterrupt
                  0x018590                  __U2TXInterrupt
                  0x0185c6                  build/default/production/_ext/1639979382/uart2.o:_sendFrom
                  0x018634                  build/default/production/_ext/1639979382/uart2.o:_setBaudRate
                  0x018652                  build/default/production/_ext/1639979382/uart2.o:_copyFrom
                  0x0186bc                  build/default/production/_ext/1639979382/uart2.o:_receiveFrom
                  0x018712                  build/default/production/_ext/1639979382/uart2.o:_dropFrom
                  0x018740                  build/default/production/_ext/1639979382/uart2.o:_flush
                  0x01874a                  _HdwrTest
                  0x018a08                  _readQ1
                  0x018a26                  _readQ2
                  0x018a46                  _readQ3
                  0x018a66                  _readQ4
                  0x018a86                  _readC10
                  0x018c6e                  _initA2D
                  0x018c88                  _unused_Calls
                  0x018cac                  build/default/production/_ext/1639979382/file.o:_close1
                  0x018cd6                  build/default/production/_ext/1639979382/file.o:_open1
                  0x018cf8                  build/default/production/_ext/1639979382/file.o:_write1
                  0x018d12                  build/default/production/_ext/1639979382/file.o:_read1
                  0x018d48                  build/default/production/_ext/1639979382/file.o:_free1
                  0x018d64                  build/default/production/_ext/1639979382/file.o:_close2
                  0x018d8e                  build/default/production/_ext/1639979382/file.o:_open2
                  0x018db0                  build/default/production/_ext/1639979382/file.o:_write2
                  0x018dca                  build/default/production/_ext/1639979382/file.o:_read2
                  0x018e00                  build/default/production/_ext/1639979382/file.o:_free2
                  0x018e1c                  build/default/production/_ext/1639979382/file.o:_close3
                  0x018e46                  build/default/production/_ext/1639979382/file.o:_open3
                  0x018e68                  build/default/production/_ext/1639979382/file.o:_write3
                  0x018e82                  build/default/production/_ext/1639979382/file.o:_read3
                  0x018eb8                  build/default/production/_ext/1639979382/file.o:_free3
                  0x018ed4                  _getFileStream
                  0x018f4e                  _initSensors
                  0x019030                  _readSensors
                  0x01911e                  _formatSensors
                  0x0191a0                  _errorSensors
                  0x0191bc                  _initRGB
                  0x0192a4                  _RGB_Configure2
                  0x01934e                  _RGB_ClearIrqs
                  0x019370                  _RGB_ReadStatus
                  0x019396                  _readRGB
                  0x01941c                  build/default/production/_ext/1639979382/usb.o:_ProcessIO
                  0x019440                  _USBCBSuspend
                  0x019446                  _USBCBWakeFromSuspend
                  0x01944c                  _USBCB_SOF_Handler
                  0x019454                  _USBCBErrorHandler
                  0x01945a                  _USBCBCheckOtherReq
                  0x019468                  _USBCBStdSetDscHandler
                  0x01946e                  _USBCBInitEP
                  0x019484                  _USBCBSendResume
                  0x0194c6                  _USER_USB_CALLBACK_EVENT_HANDLER
                  0x01956a                  build/default/production/_ext/1639979382/usb.o:_getState
                  0x019574                  build/default/production/_ext/1639979382/usb.o:_putUSB
                  0x019594                  build/default/production/_ext/1639979382/usb.o:_printUSB
                  0x0195b0                  build/default/production/_ext/1639979382/usb.o:_printfUSB
                  0x0195da                  build/default/production/_ext/1639979382/usb.o:_setDebugPrintState
                  0x0195ee                  build/default/production/_ext/1639979382/usb.o:_debugPrintfUSB
                  0x01961e                  build/default/production/_ext/1639979382/usb.o:_initialize
                  0x01962c                  build/default/production/_ext/1639979382/resistiveSensors.o:_readQ1
                  0x01964a                  build/default/production/_ext/1639979382/resistiveSensors.o:_readQ2
                  0x01966a                  build/default/production/_ext/1639979382/resistiveSensors.o:_readQ3
                  0x01968a                  build/default/production/_ext/1639979382/resistiveSensors.o:_readQ4
                  0x0196aa                  build/default/production/_ext/1639979382/resistiveSensors.o:_sampleQ1
                  0x019702                  build/default/production/_ext/1639979382/resistiveSensors.o:_sampleQ2
                  0x01975a                  build/default/production/_ext/1639979382/resistiveSensors.o:_sampleQ3
                  0x0197b2                  build/default/production/_ext/1639979382/resistiveSensors.o:_sampleQ4
                  0x01980a                  build/default/production/_ext/1639979382/resistiveSensors.o:_initialize
                  0x019820                  _readNVM
                  0x019860                  _writeNVM
                  0x0198c4                  _initBuffer
                  0x0198ec                  _setBuffer
                  0x01991a                  _compareBuffer
                  0x019952                  _TestNVM
                  0x0199a8                  _replaceColonWithPeriod
                  0x0199cc                  _handleSensor
                  0x0199e0                  _run_experiment
                  0x019a80                  _init_experiment
                  0x019ab4                  _shutdown_experiment
                  0x019ac6                  _kernel18
                  0x019b22                  _readOptos
                  0x019c80                  build/default/production/_ext/1639979382/led.o:_initPwm1
                  0x019cd6                  build/default/production/_ext/1639979382/led.o:_setPwm1DutyCycle
                  0x019d20                  build/default/production/_ext/1639979382/led.o:_initPwm2
                  0x019d78                  build/default/production/_ext/1639979382/led.o:_setPwm2DutyCycle
                  0x019dc2                  build/default/production/_ext/1639979382/button.o:_readInput
                  0x019dd6                  build/default/production/_ext/1639979382/button.o:_initialize
                  0x019e1a                  __CNInterrupt
                  0x019e7a                  build/default/production/_ext/1639979382/button.o:_getKeystroke
                  0x019e8a                  build/default/production/_ext/1639979382/button.o:_enableKeystroke
                  0x019e96                  build/default/production/_ext/1639979382/button.o:_disableKeystroke
                  0x019eae                  __T5Interrupt
                  0x019eec                  build/default/production/_ext/1639979382/powerDriver.o:_setOutputA
                  0x019f0c                  build/default/production/_ext/1639979382/powerDriver.o:_setOnA
                  0x019f16                  build/default/production/_ext/1639979382/powerDriver.o:_setOffA
                  0x019f20                  build/default/production/_ext/1639979382/powerDriver.o:_initializeA
                  0x019f26                  build/default/production/_ext/1639979382/powerDriver.o:_readInputA
                  0x019f36                  build/default/production/_ext/1639979382/powerDriver.o:_failureA
                  0x019f62                  build/default/production/_ext/1639979382/powerDriver.o:_isOkA
                  0x019f72                  build/default/production/_ext/1639979382/powerDriver.o:_setOutputB
                  0x019f90                  build/default/production/_ext/1639979382/powerDriver.o:_setOnB
                  0x019f9a                  build/default/production/_ext/1639979382/powerDriver.o:_setOffB
                  0x019fa4                  build/default/production/_ext/1639979382/powerDriver.o:_initializeB
                  0x019faa                  build/default/production/_ext/1639979382/powerDriver.o:_readInputB
                  0x019fb2                  build/default/production/_ext/1639979382/powerDriver.o:_failureB
                  0x019fbe                  build/default/production/_ext/1639979382/powerDriver.o:_isOkB
                  0x019fce                  build/default/production/_ext/1639979382/co2.o:_readValue
                  0x019fee                  build/default/production/_ext/1639979382/co2.o:_setHeaterOutput
                  0x01a00e                  build/default/production/_ext/1639979382/co2.o:_turnOff
                  0x01a01c                  build/default/production/_ext/1639979382/co2.o:_turnOn
                  0x01a02a                  build/default/production/_ext/1639979382/co2.o:_getReading
                  0x01a082                  build/default/production/_ext/1639979382/co2.o:_readTest
                  0x01a092                  build/default/production/_ext/1639979382/co2.o:_initialize
                  0x01a0a4                  _main
                  0x01a168                  build/default/production/_ext/1639979382/datalog.o:_initialize
                  0x01a18e                  build/default/production/_ext/1639979382/datalog.o:_isInitialized
                  0x01a19e                  build/default/production/_ext/1639979382/datalog.o:_logValue
                  0x01a228                  _takePicture
                  0x01a282                  _fixcolons
                  0x01a2a6                  _kernel16
                  0x01a35e                  build/default/production/_ext/1639979382/system.o:_initialize
                  0x01a388                  build/default/production/_ext/1639979382/system.o:_disable6volt
                  0x01a392                  build/default/production/_ext/1639979382/system.o:_enable6volt
                  0x01a3e2                  build/default/production/_ext/1749136748/non_pwm_led.o:_setOnLED1
                  0x01a3ec                  build/default/production/_ext/1749136748/non_pwm_led.o:_setOffLED1
                  0x01a43c                  build/default/production/_ext/1749136748/non_pwm_led.o:_setOnLED2
                  0x01a446                  build/default/production/_ext/1749136748/non_pwm_led.o:_setOffLED2
                  0x01a450                  _kernel12
                  0x01a4d4                  build/default/production/_ext/1639979382/sdcard.o:_initialize
                  0x01a546                  build/default/production/_ext/1639979382/sdcard.o:_isInitialized
                  0x01a54e                  _kernel17
                  0x01a5ba                  build/default/production/_ext/1639979382/nesi.o:_initialize
                  0x01a5f6                  _kernel14
                  0x01a628                  ___delay32
                  0x01a644                  _kernel13
                  0x01a65c                  _kernel19
                  0x01a66c                  _kernel15

External Symbols in Program Memory (by name):

                  0x0083b6                  _Alias_LFN_Object
                  0x0047f0                  _BufLenOverflow
                  0x01759c                  _CDCInitEP
                  0x017778                  _CDCTxService
                  0x0087ee                  _CacheTime
                  0x007b80                  _Cache_File_Entry
                  0x017ba8                  _CheckFile
                  0x01488c                  _CloseSPIM
                  0x009a72                  _Cluster2Sector
                  0x0115d4                  _Combine2
                  0x01160a                  _Combine3
                  0x00cd4a                  _CreateDIR
                  0x007dea                  _CreateFileEntry
                  0x00811c                  _CreateFirstCluster
                  0x005ad2                  _DISKmount
                  0x014844                  _Delayms
                  0x00481a                  _DrvrEncoder
                  0x004812                  _DrvrExtRTC
                  0x004814                  _DrvrIntRTC
                  0x00481e                  _DrvrMotor
                  0x004820                  _DrvrNotAvail
                  0x004810                  _DrvrNull
                  0x00481c                  _DrvrRadiation
                  0x004816                  _DrvrRedGrnBlu
                  0x004818                  _DrvrTemHumPrs
                  0x00992e                  _EraseCluster
                  0x004a92                  _ErrGetStg
                  0x004a86                  _ErrNull
                  0x004a96                  _ErrPing
                  0x004a8e                  _ErrRestart
                  0x004a90                  _ErrSndAdRd
                  0x004a8a                  _ErrSndAdWt
                  0x004a8c                  _ErrSndStg
                  0x004a88                  _ErrStartBit
                  0x004a94                  _ErrStopBit
                  0x014e28                  _ErrorCheck
                  0x007a88                  _FAT_erase_cluster_chain
                  0x0089ce                  _FATfindEmptyCluster
                  0x00987e                  _FILECreateHeadCluster
                  0x00892e                  _FILEallocate_new_cluster
                  0x009050                  _FILEerase
                  0x004c2c                  _FILEfind
                  0x0059f2                  _FILEget_next_cluster
                  0x0058b2                  _FILEopen
                  0x00645a                  _FSCreateMBR
                  0x0044a6                  _FSEncoder
                  0x0044a2                  _FSFullStep
                  0x008ada                  _FSGetDiskProperties
                  0x0044a4                  _FSHalfStep
                  0x004b70                  _FSInit
                  0x009b52                  _FSattrib
                  0x00b82a                  _FSchdir
                  0x00983c                  _FSerror
                  0x008cce                  _FSfclose
                  0x009f28                  _FSfeof
                  0x0092da                  _FSfopen
                  0x0066d4                  _FSformat
                  0x00df8c                  _FSfprintf
                  0x009f50                  _FSfread
                  0x00ad12                  _FSfseek
                  0x0096a6                  _FSftell
                  0x009bf0                  _FSfwrite
                  0x00bd26                  _FSgetcwd
                  0x00c758                  _FSmkdir
                  0x00df3c                  _FSputc
                  0x0096ba                  _FSremove
                  0x009176                  _FSrename
                  0x009806                  _FSrewind
                  0x00cfca                  _FSrmdir
                  0x00dfa4                  _FSvfprintf
                  0x009848                  _FileObjectCopy
                  0x008dd2                  _Fill_File_Object
                  0x008f32                  _Fill_LFN_Object
                  0x008198                  _FindEmptyEntries
                  0x00da7c                  _FindFirst
                  0x00dcfc                  _FindNext
                  0x00a588                  _FormatDirName
                  0x00a186                  _FormatFileName
                  0x006432                  _GetFullClusterNumber
                  0x00c42e                  _GetPreviousEntry
                  0x01874a                  _HdwrTest
                  0x0148ee                  _InitSPISlowMode
                  0x005dee                  _LoadBootSector
                  0x008fd0                  _LoadDirAttrib
                  0x005b90                  _LoadMBR
                  0x0143a6                  _MDD_SDSPI_AsyncReadTasks
                  0x014582                  _MDD_SDSPI_AsyncWriteTasks
                  0x014226                  _MDD_SDSPI_InitIO
                  0x0141fe                  _MDD_SDSPI_MediaDetect
                  0x014944                  _MDD_SDSPI_MediaInitialize
                  0x01421c                  _MDD_SDSPI_ReadCapacity
                  0x0148b8                  _MDD_SDSPI_ReadMedia
                  0x014214                  _MDD_SDSPI_ReadSectorSize
                  0x014362                  _MDD_SDSPI_SectorRead
                  0x0147dc                  _MDD_SDSPI_SectorWrite
                  0x014234                  _MDD_SDSPI_ShutdownMedia
                  0x014838                  _MDD_SDSPI_WriteProtectState
                  0x014000                  _MSDCheckForErrorCases
                  0x0140fe                  _MSDErrorHandler
                  0x0137d6                  _MSDProcessCommand
                  0x013862                  _MSDProcessCommandMediaAbsent
                  0x0138c8                  _MSDProcessCommandMediaPresent
                  0x013bb2                  _MSDReadHandler
                  0x0135d2                  _MSDTasks
                  0x013d44                  _MSDWriteHandler
                  0x004802                  _Misc1
                  0x004804                  _Misc2
                  0x004806                  _Misc3
                  0x004808                  _Misc4
                  0x00480a                  _Misc5
                  0x00480c                  _Misc6
                  0x00480e                  _Misc7
                  0x015146                  _MotorStepper
                  0x0049da                  _NullFile
                  0x0148d0                  _OpenSPIM
                  0x0082e6                  _PopulateEntries
                  0x004a9a                  _RBUFLEN
                  0x004aee                  _RGB_Cfg2L1
                  0x004aef                  _RGB_Cfg2L2
                  0x004af0                  _RGB_Cfg2L3
                  0x004af1                  _RGB_Cfg2L4
                  0x004af2                  _RGB_Cfg2L5
                  0x01934e                  _RGB_ClearIrqs
                  0x004af3                  _RGB_ClrIrqLR
                  0x0192a4                  _RGB_Configure2
                  0x004aeb                  _RGB_MaxRead
                  0x004aed                  _RGB_MaxRegAdsr
                  0x004aea                  _RGB_MaxSend
                  0x004aec                  _RGB_MinRegAddr
                  0x004af6                  _RGB_RdValL1
                  0x019370                  _RGB_ReadStatus
                  0x004af5                  _RGB_StatusL1
                  0x004af4                  _RGB_StatusLS
                  0x004b6e                  _RTC_ADDR
                  0x0099e8                  _ReadByte
                  0x009a2c                  _ReadDWord
                  0x00afa4                  _ReadFAT
                  0x0099f8                  _ReadWord
                  0x015762                  _Read_Switch_Align
                  0x015794                  _Read_Switch_Home
                  0x013f56                  _ResetSenseData
                  0x004a98                  _SBUFLEN
                  0x004450                  _SDConfigFile
                  0x0043fc                  _SDDataFile
                  0x0043a8                  _SDEventFile
                  0x014240                  _SendMMCCmd
                  0x0047f4                  _Stage1
                  0x0047f6                  _Stage2
                  0x0047f8                  _Stage3
                  0x0047fa                  _Stage4
                  0x0047fc                  _Stage5
                  0x0047fe                  _Stage6
                  0x004800                  _Stage7
                  0x0047f2                  _StageNull
                  0x0046a7                  _THP_Cfg1_Ofs
                  0x0046af                  _THP_Cfg2L1
                  0x0046b0                  _THP_Cfg2L2
                  0x0046b1                  _THP_Cfg2L3
                  0x0046b2                  _THP_Cfg2L4
                  0x0046a8                  _THP_Cfg2_Ofs
                  0x0046a9                  _THP_Cfg3_Ofs
                  0x0046aa                  _THP_Cfg4_Ofs
                  0x0046ab                  _THP_Cmp1L1
                  0x0046ac                  _THP_Cmp1L2
                  0x0046ad                  _THP_Cmp1L3
                  0x0046ae                  _THP_Cmp1L4
                  0x011678                  _THP_LoadConfigs
                  0x012088                  _THP_LoadRawValues
                  0x0046a3                  _THP_MaxRead
                  0x0046a5                  _THP_MaxRegAdsr
                  0x0046a2                  _THP_MaxSend
                  0x0046a4                  _THP_MinRegAddr
                  0x0046a6                  _THP_RdBufLen
                  0x0115a8                  _THP_SetBuffer
                  0x011d74                  _THP_compensate_H_int32
                  0x01184e                  _THP_compensate_P_int64
                  0x01177a                  _THP_compensate_T_int32
                  0x011b58                  _THP_compenstate_P_double
                  0x019952                  _TestNVM
                  0x01945a                  _USBCBCheckOtherReq
                  0x019454                  _USBCBErrorHandler
                  0x01946e                  _USBCBInitEP
                  0x019484                  _USBCBSendResume
                  0x019468                  _USBCBStdSetDscHandler
                  0x019440                  _USBCBSuspend
                  0x019446                  _USBCBWakeFromSuspend
                  0x01944c                  _USBCB_SOF_Handler
                  0x0175ea                  _USBCDCEventHandler
                  0x0128f4                  _USBCancelIO
                  0x01749a                  _USBCheckCDCRequest
                  0x0134f8                  _USBCheckMSDRequest
                  0x012a50                  _USBCtrlEPAllowDataStage
                  0x0129e8                  _USBCtrlEPAllowStatusStage
                  0x0129b6                  _USBDeviceAttach
                  0x0129a8                  _USBDeviceDetach
                  0x01250c                  _USBDeviceInit
                  0x0127b0                  _USBEnableEndpoint
                  0x013460                  _USBMSDInit
                  0x012884                  _USBStallEndpoint
                  0x0127ea                  _USBTransferOnePacket
                  0x004698                  _USB_CD_Ptr
                  0x00469a                  _USB_SD_Ptr
                  0x0194c6                  _USER_USB_CALLBACK_EVENT_HANDLER
                  0x00aa12                  _ValidateChars
                  0x010d56                  _Wait
                  0x00b3c0                  _WriteFAT
                  0x01489a                  _WriteSPIM
                  0x0079aa                  _Write_File_Entry
                  0x002ec8                  __Atexit
                  0x019e1a                  __CNInterrupt
                  0x002e06                  __Closreg
                  0x002316                  __DNKfflush
                  0x0004ec                  __DefaultInterrupt
                  0x002ee0                  __Dnorm
                  0x002558                  __Fwprep
                  0x0032c4                  __Genld
                  0x003528                  __Getint
                  0x0037e4                  __Getmem
                  0x003832                  __Getstr
                  0x002f78                  __LDscale
                  0x0029d8                  __LDunscale
                  0x0025e6                  __Ldtob
                  0x002a2c                  __Litob
                  0x0013cc                  __Printf
                  0x001530                  __Putfld
                  0x002c8a                  __Puttxt
                  0x010dbc                  __RTCCInterrupt
                  0x003a18                  __Stoll
                  0x001270                  __Stoul
                  0x003ad0                  __Stoull
                  0x01628a                  __T2Interrupt
                  0x010d8a                  __T4Interrupt
                  0x019eae                  __T5Interrupt
                  0x017fa4                  __U1RXInterrupt
                  0x017fe6                  __U1TXInterrupt
                  0x01854e                  __U2RXInterrupt
                  0x018590                  __U2TXInterrupt
                  0x01827a                  __U3RXInterrupt
                  0x0182bc                  __U3TXInterrupt
                  0x0125fa                  __USB1Interrupt
                  0x001864                  __Vacopy
                  0x0020cc                  ___Genld_cdfFnopsuxX
                  0x0020cc                  ___Genld_cdfFnopuxX
                  0x00306e                  ___Getfld_cdnopuxX
                  0x001e7c                  ___Ldtob_cdfFnopsuxX
                  0x001e7c                  ___Ldtob_cdfFnopuxX
                  0x001a4e                  ___Printf_cdfFnopsuxX
                  0x001a4e                  ___Printf_cdfFnopuxX
                  0x001a4e                  ___Printf_cdnopsuxX
                  0x001a4e                  ___Printf_cdnopuxX
                  0x001a4e                  ___Printf_s
                  0x001bb2                  ___Putfld_cdfFnopsuxX
                  0x001bb2                  ___Putfld_cdfFnopuxX
                  0x001bb2                  ___Putfld_cdnopsuxX
                  0x001bb2                  ___Putfld_cdnopuxX
                  0x001bb2                  ___Putfld_s
                  0x001892                  ___Scanf_cdnopuxX
                  0x003d30                  ___adddf3
                  0x0008b6                  ___addsf3
                  0x0008b6                  ___addsf3x
                  0x01a628                  ___delay32
                  0x003dc6                  ___divdf3
                  0x000796                  ___divdi3
                  0x000cca                  ___divsf3
                  0x000cca                  ___divsf3x
                  0x0005b2                  ___divsi3
                  0x003c68                  ___eqdf2
                  0x0005d0                  ___eqsf2
                  0x003c7c                  ___extendsfdf2
                  0x003cba                  ___fixdfsi
                  0x0005d8                  ___fixsfsi
                  0x00425c                  ___floatdidf
                  0x001030                  ___floatdisf
                  0x003d12                  ___floatsidf
                  0x00061a                  ___floatsisf
                  0x00427c                  ___floatundidf
                  0x001050                  ___floatundisf
                  0x000620                  ___floatunsisf
                  0x003c72                  ___gedf2
                  0x0005d4                  ___gesf2
                  0x003c72                  ___gtdf2
                  0x0005d4                  ___gtsf2
                  0x003c68                  ___ledf2
                  0x0005d0                  ___lesf2
                  0x003c68                  ___ltdf2
                  0x0005d0                  ___ltsf2
                  0x0007f6                  ___moddi3
                  0x003f24                  ___muldf3
                  0x000852                  ___muldi3
                  0x003d18                  ___mulp32eds3
                  0x003d18                  ___mulp32peds3
                  0x000a80                  ___mulsf3
                  0x000a80                  ___mulsf3x
                  0x003d18                  ___mulsi3
                  0x003d24                  ___subdf3
                  0x0008a4                  ___subsf3
                  0x0008a4                  ___subsf3x
                  0x000780                  ___udivdi3
                  0x00069a                  ___udivmoddi3
                  0x000b8c                  ___udivsi3
                  0x000b8c                  ___udivsi3x
                  0x00078e                  ___umoddi3
                  0x000c66                  ___umodsi3
                  0x000c66                  ___umodsi3x
                  0x00110a                  ___umuldi3
                  0x00432a                  __dPropagateNaN
                  0x00023c                  __data_init
                  0x00023c                  __data_init_standard
                  0x004166                  __dcompare
                  0x000f00                  __dnrmpackf
                  0x00412c                  __dnsrnd
                  0x0042d2                  __dpack
                  0x004158                  __dpakex
                  0x00424c                  __dreturnNaN
                  0x004122                  __drndex
                  0x004066                  __drshft
                  0x0041b8                  __dtype
                  0x0041dc                  __dunpack
                  0x00422a                  __dunpack2
                  0x004252                  __dunpack2exit
                  0x0040c0                  __dupchk
                  0x004058                  __dxchg
                  0x000ffa                  __fcompare
                  0x0010ae                  __fpack
                  0x000624                  __funpack
                  0x0010fa                  __funpack2
                  0x0022f0                  __printf_0
                  0x0022f0                  __printf_s
                  0x000e88                  __propnanf
                  0x00022c                  __psv_init
                  0x000200                  __resetPRI
                  0x000e5c                  __sdivf
                  0x000f54                  __spackf
                  0x001a30                  __sprintf_0
                  0x001a30                  __sprintf_cdfFnopsuxX
                  0x001a30                  __sprintf_cdfFnopuxX
                  0x001a30                  __sprintf_cdnopsuxX
                  0x001a30                  __sprintf_cdnopuxX
                  0x001a30                  __sprintf_s
                  0x001880                  __sscanf_cdnopuxX
                  0x00114e                  __typef
                  0x000c6c                  __unpackdnrmf
                  0x000e9a                  __unpackf
                  0x0011ae                  _atoi
                  0x004b48                  _button
                  0x017402                  _calibrateEncoder
                  0x004a9e                  _camera
                  0x004ab2                  _camera2
                  0x00b858                  _chdirhelper
                  0x0156de                  _checkCarousel
                  0x0152b0                  _checkMotor
                  0x004b2c                  _co2
                  0x01991a                  _compareBuffer
                  0x01154c                  _compareDateAndTime
                  0x011f0c                  _compensate_H_double
                  0x0045c2                  _configDescriptor1
                  0x0049f0                  _dataLog
                  0x004892                  _dateTime
                  0x0045b0                  _device_dsc
                  0x012116                  _diagRecord
                  0x002300                  _div
                  0x00d9f6                  _eraseDir
                  0x0191a0                  _errorSensors
                  0x002e18                  _fclose
                  0x0049bc                  _file1
                  0x0049c6                  _file2
                  0x0049d0                  _file3
                  0x01a282                  _fixcolons
                  0x009ece                  _flushData
                  0x01911e                  _formatSensors
                  0x0017fa                  _fputc
                  0x00238c                  _fputs
                  0x0031a6                  _free
                  0x00241c                  _fwrite
                  0x017b8c                  _get1
                  0x018ed4                  _getFileStream
                  0x00feb6                  _getI2C2_RTCTime
                  0x010d4a                  _getMilisecondCount
                  0x00fb32                  _getRTCTimeStamp
                  0x016742                  _getStatus
                  0x016c1c                  _getStatus2
                  0x010ca4                  _getSystemCalendarAndClock
                  0x01762c                  _getsUSBUSART
                  0x0199cc                  _handleSensor
                  0x016066                  _i2c2_Diag_Clear
                  0x01601e                  _i2c2_Diag_Report
                  0x0160b4                  _i2c2_TalkToDevice
                  0x015cee                  _i2c2_init
                  0x015ec8                  _i2c2_read_byte_ack
                  0x015faa                  _i2c2_read_string
                  0x015d0e                  _i2c2_reset_bus
                  0x015d66                  _i2c2_restart
                  0x015e1c                  _i2c2_send_addr_rd
                  0x015e36                  _i2c2_send_addr_wt
                  0x015e50                  _i2c2_send_byte_ack
                  0x015f62                  _i2c2_send_string
                  0x015d3a                  _i2c2_start
                  0x015dbc                  _i2c2_stop
                  0x018c6e                  _initA2D
                  0x0198c4                  _initBuffer
                  0x017070                  _initEncoder
                  0x0191bc                  _initRGB
                  0x017e76                  _initRad
                  0x017bcc                  _initRadiation
                  0x018f4e                  _initSensors
                  0x014cf6                  _initStepper
                  0x012418                  _initTHP
                  0x019a80                  _init_experiment
                  0x015aac                  _initialize6Volt
                  0x015806                  _initializeCam1
                  0x015850                  _initializeCam2
                  0x015af8                  _initializeDiag
                  0x0158c2                  _initializeLED1
                  0x015934                  _initializeLED2
                  0x015a16                  _initializeMotCCW
                  0x0159ca                  _initializeMotCW
                  0x015a62                  _initializeMotEna
                  0x015b44                  _initializeMotorEn
                  0x015b90                  _initializeRG9
                  0x01597e                  _initializeServo
                  0x004904                  _inq_resp
                  0x001182                  _isspace
                  0x01a450                  _kernel12
                  0x01a644                  _kernel13
                  0x01a5f6                  _kernel14
                  0x01a66c                  _kernel15
                  0x01a2a6                  _kernel16
                  0x01a54e                  _kernel17
                  0x019ac6                  _kernel18
                  0x01a65c                  _kernel19
                  0x0024c4                  _ldiv
                  0x004b5a                  _led1
                  0x004b5e                  _led2
                  0x004b52                  _ledB
                  0x004b56                  _ledR
                  0x01a0a4                  _main
                  0x003270                  _malloc
                  0x0024ee                  _memchr
                  0x0011b4                  _memcpy
                  0x0011c2                  _memset
                  0x00c786                  _mkdirhelper
                  0x0173a2                  _monitorEncoder
                  0x01564e                  _moveCarousel
                  0x01548c                  _multiMotorMove
                  0x004b6c                  _nesi
                  0x010070                  _newCalendarAndClock
                  0x004964                  _portbitOf00
                  0x004966                  _portbitOf01
                  0x004968                  _portbitOf02
                  0x00496a                  _portbitOf03
                  0x00496c                  _portbitOf04
                  0x00496e                  _portbitOf05
                  0x004970                  _portbitOf06
                  0x004972                  _portbitOf07
                  0x004974                  _portbitOf08
                  0x004976                  _portbitOf09
                  0x004978                  _portbitOf10
                  0x00497a                  _portbitOf11
                  0x00497c                  _portbitOf12
                  0x00497e                  _portbitOf13
                  0x004980                  _portbitOf14
                  0x004982                  _portbitOf15
                  0x004944                  _portbitOn00
                  0x004946                  _portbitOn01
                  0x004948                  _portbitOn02
                  0x00494a                  _portbitOn03
                  0x00494c                  _portbitOn04
                  0x00494e                  _portbitOn05
                  0x004950                  _portbitOn06
                  0x004952                  _portbitOn07
                  0x004954                  _portbitOn08
                  0x004956                  _portbitOn09
                  0x004958                  _portbitOn10
                  0x00495a                  _portbitOn11
                  0x00495c                  _portbitOn12
                  0x00495e                  _portbitOn13
                  0x004960                  _portbitOn14
                  0x004962                  _portbitOn15
                  0x014f84                  _positionPattern
                  0x004a50                  _powerDriverA
                  0x004a5e                  _powerDriverB
                  0x0176a0                  _putUSBUSART
                  0x017722                  _putrsUSBUSART
                  0x0011d0                  _puts
                  0x0176cc                  _putsUSBUSART
                  0x018a86                  _readC10
                  0x0170c2                  _readEncoder
                  0x019820                  _readNVM
                  0x019b22                  _readOptos
                  0x018a08                  _readQ1
                  0x018a26                  _readQ2
                  0x018a46                  _readQ3
                  0x018a66                  _readQ4
                  0x019396                  _readRGB
                  0x017d22                  _readRad
                  0x017c54                  _readRadiation
                  0x019030                  _readSensors
                  0x01245a                  _readTHP
                  0x0199a8                  _replaceColonWithPeriod
                  0x004ad8                  _resistiveSensors
                  0x00d000                  _rmdirhelper
                  0x0199e0                  _run_experiment
                  0x004624                  _sd000
                  0x004628                  _sd001
                  0x004662                  _sd002
                  0x004682                  _sd003
                  0x004b68                  _sdcard
                  0x004778                  _sdmmc_cmdtable
                  0x0198ec                  _setBuffer
                  0x00fdd6                  _setI2C2_RTCTime
                  0x015aa2                  _setOff6Volt
                  0x0157fc                  _setOffCam1
                  0x015846                  _setOffCam2
                  0x015aee                  _setOffDiag
                  0x014e1c                  _setOffHalfStep
                  0x0158b8                  _setOffLED1
                  0x01592a                  _setOffLED2
                  0x015a0c                  _setOffMotCCW
                  0x0159c0                  _setOffMotCW
                  0x015a58                  _setOffMotEna
                  0x015b3a                  _setOffMotorEn
                  0x015b86                  _setOffRG9
                  0x015974                  _setOffServo
                  0x014e04                  _setOffStepDirection
                  0x014dec                  _setOffStepDisable
                  0x015a98                  _setOn6Volt
                  0x0157f2                  _setOnCam1
                  0x01583c                  _setOnCam2
                  0x015ae4                  _setOnDiag
                  0x014e10                  _setOnHalfStep
                  0x0158ae                  _setOnLED1
                  0x015920                  _setOnLED2
                  0x015a02                  _setOnMotCCW
                  0x0159b6                  _setOnMotCW
                  0x015a4e                  _setOnMotEna
                  0x015b30                  _setOnMotorEn
                  0x015b7c                  _setOnRG9
                  0x01596a                  _setOnServo
                  0x014df8                  _setOnStepDirection
                  0x014de0                  _setOnStepDisable
                  0x015a68                  _setOutput6Volt
                  0x0157c2                  _setOutputCam1
                  0x01580c                  _setOutputCam2
                  0x015ab2                  _setOutputDiag
                  0x015856                  _setOutputLED1
                  0x0158c8                  _setOutputLED2
                  0x0159d0                  _setOutputMotCCW
                  0x015984                  _setOutputMotCW
                  0x015a1c                  _setOutputMotEna
                  0x015afe                  _setOutputMotorEn
                  0x015b4a                  _setOutputRG9
                  0x01593a                  _setOutputServo
                  0x00ff92                  _setPIC_RTCTime
                  0x010b68                  _setSystemCalendarAndClock
                  0x015bec                  _setUart1Rx
                  0x015b96                  _setUart1Tx
                  0x015c98                  _setUart2Rx
                  0x015c42                  _setUart2Tx
                  0x019ab4                  _shutdown_experiment
                  0x00df5a                  _str_put_n_chars
                  0x001846                  _strchr
                  0x0011e6                  _strcmp
                  0x001206                  _strcpy
                  0x002502                  _strcspn
                  0x001212                  _strlen
                  0x00121e                  _strncpy
                  0x002524                  _strrchr
                  0x002538                  _strspn
                  0x00123c                  _strtok
                  0x004b62                  _system
                  0x01a228                  _takePicture
                  0x001192                  _tolower
                  0x0011a0                  _toupper
                  0x004afc                  _uart1
                  0x004b0c                  _uart2
                  0x004b1c                  _uart3
                  0x018c88                  _unused_Calls
                  0x004928                  _usb
                  0x0013b2                  _vsprintf
                  0x00b83a                  _wFSchdir
                  0x0092be                  _wFSfopen
                  0x00c412                  _wFSgetcwd
                  0x00c768                  _wFSmkdir
                  0x0097ee                  _wFSremove
                  0x0092a2                  _wFSrename
                  0x00cfde                  _wFSrmdir
                  0x00df1c                  _wFindFirst
                  0x00ce3c                  _writeDotEntries
                  0x019860                  _writeNVM
                  0x019e96                  build/default/production/_ext/1639979382/button.o:_disableKeystroke
                  0x019e8a                  build/default/production/_ext/1639979382/button.o:_enableKeystroke
                  0x019e7a                  build/default/production/_ext/1639979382/button.o:_getKeystroke
                  0x019dd6                  build/default/production/_ext/1639979382/button.o:_initialize
                  0x019dc2                  build/default/production/_ext/1639979382/button.o:_readInput
                  0x0166da                  build/default/production/_ext/1639979382/camera.o:_initialize
                  0x0166f0                  build/default/production/_ext/1639979382/camera.o:_retrievePic
                  0x0166c6                  build/default/production/_ext/1639979382/camera.o:_turnOff
                  0x0166d0                  build/default/production/_ext/1639979382/camera.o:_turnOn
                  0x016bb4                  build/default/production/_ext/1639979382/camera2.o:_initialize2
                  0x016bca                  build/default/production/_ext/1639979382/camera2.o:_retrievePic2
                  0x016ba0                  build/default/production/_ext/1639979382/camera2.o:_turnOff2
                  0x016baa                  build/default/production/_ext/1639979382/camera2.o:_turnOn2
                  0x01a02a                  build/default/production/_ext/1639979382/co2.o:_getReading
                  0x01a092                  build/default/production/_ext/1639979382/co2.o:_initialize
                  0x01a082                  build/default/production/_ext/1639979382/co2.o:_readTest
                  0x019fce                  build/default/production/_ext/1639979382/co2.o:_readValue
                  0x019fee                  build/default/production/_ext/1639979382/co2.o:_setHeaterOutput
                  0x01a00e                  build/default/production/_ext/1639979382/co2.o:_turnOff
                  0x01a01c                  build/default/production/_ext/1639979382/co2.o:_turnOn
                  0x01a168                  build/default/production/_ext/1639979382/datalog.o:_initialize
                  0x01a18e                  build/default/production/_ext/1639979382/datalog.o:_isInitialized
                  0x01a19e                  build/default/production/_ext/1639979382/datalog.o:_logValue
                  0x0111f8                  build/default/production/_ext/1639979382/dateTime.o:_addDateAndTimes
                  0x011334                  build/default/production/_ext/1639979382/dateTime.o:_dateAndTimeToTimeStamp
                  0x0114a6                  build/default/production/_ext/1639979382/dateTime.o:_getDateAndTime
                  0x011298                  build/default/production/_ext/1639979382/dateTime.o:_getTimeStamp
                  0x010e10                  build/default/production/_ext/1639979382/dateTime.o:_initialize
                  0x010e74                  build/default/production/_ext/1639979382/dateTime.o:_newDateAndTime
                  0x011446                  build/default/production/_ext/1639979382/dateTime.o:_parseTimeStamp
                  0x01150c                  build/default/production/_ext/1639979382/dateTime.o:_setDateAndTime
                  0x011248                  build/default/production/_ext/1639979382/dateTime.o:_subtractDateAndTimes
                  0x0111ce                  build/default/production/_ext/1639979382/dateTime.o:_toDateAndTime
                  0x018cac                  build/default/production/_ext/1639979382/file.o:_close1
                  0x018d64                  build/default/production/_ext/1639979382/file.o:_close2
                  0x018e1c                  build/default/production/_ext/1639979382/file.o:_close3
                  0x018d48                  build/default/production/_ext/1639979382/file.o:_free1
                  0x018e00                  build/default/production/_ext/1639979382/file.o:_free2
                  0x018eb8                  build/default/production/_ext/1639979382/file.o:_free3
                  0x018cd6                  build/default/production/_ext/1639979382/file.o:_open1
                  0x018d8e                  build/default/production/_ext/1639979382/file.o:_open2
                  0x018e46                  build/default/production/_ext/1639979382/file.o:_open3
                  0x018d12                  build/default/production/_ext/1639979382/file.o:_read1
                  0x018dca                  build/default/production/_ext/1639979382/file.o:_read2
                  0x018e82                  build/default/production/_ext/1639979382/file.o:_read3
                  0x018cf8                  build/default/production/_ext/1639979382/file.o:_write1
                  0x018db0                  build/default/production/_ext/1639979382/file.o:_write2
                  0x018e68                  build/default/production/_ext/1639979382/file.o:_write3
                  0x019c80                  build/default/production/_ext/1639979382/led.o:_initPwm1
                  0x019d20                  build/default/production/_ext/1639979382/led.o:_initPwm2
                  0x019cd6                  build/default/production/_ext/1639979382/led.o:_setPwm1DutyCycle
                  0x019d78                  build/default/production/_ext/1639979382/led.o:_setPwm2DutyCycle
                  0x01a5ba                  build/default/production/_ext/1639979382/nesi.o:_initialize
                  0x019f36                  build/default/production/_ext/1639979382/powerDriver.o:_failureA
                  0x019fb2                  build/default/production/_ext/1639979382/powerDriver.o:_failureB
                  0x019f20                  build/default/production/_ext/1639979382/powerDriver.o:_initializeA
                  0x019fa4                  build/default/production/_ext/1639979382/powerDriver.o:_initializeB
                  0x019f62                  build/default/production/_ext/1639979382/powerDriver.o:_isOkA
                  0x019fbe                  build/default/production/_ext/1639979382/powerDriver.o:_isOkB
                  0x019f26                  build/default/production/_ext/1639979382/powerDriver.o:_readInputA
                  0x019faa                  build/default/production/_ext/1639979382/powerDriver.o:_readInputB
                  0x019f16                  build/default/production/_ext/1639979382/powerDriver.o:_setOffA
                  0x019f9a                  build/default/production/_ext/1639979382/powerDriver.o:_setOffB
                  0x019f0c                  build/default/production/_ext/1639979382/powerDriver.o:_setOnA
                  0x019f90                  build/default/production/_ext/1639979382/powerDriver.o:_setOnB
                  0x019eec                  build/default/production/_ext/1639979382/powerDriver.o:_setOutputA
                  0x019f72                  build/default/production/_ext/1639979382/powerDriver.o:_setOutputB
                  0x01980a                  build/default/production/_ext/1639979382/resistiveSensors.o:_initialize
                  0x01962c                  build/default/production/_ext/1639979382/resistiveSensors.o:_readQ1
                  0x01964a                  build/default/production/_ext/1639979382/resistiveSensors.o:_readQ2
                  0x01966a                  build/default/production/_ext/1639979382/resistiveSensors.o:_readQ3
                  0x01968a                  build/default/production/_ext/1639979382/resistiveSensors.o:_readQ4
                  0x0196aa                  build/default/production/_ext/1639979382/resistiveSensors.o:_sampleQ1
                  0x019702                  build/default/production/_ext/1639979382/resistiveSensors.o:_sampleQ2
                  0x01975a                  build/default/production/_ext/1639979382/resistiveSensors.o:_sampleQ3
                  0x0197b2                  build/default/production/_ext/1639979382/resistiveSensors.o:_sampleQ4
                  0x01a4d4                  build/default/production/_ext/1639979382/sdcard.o:_initialize
                  0x01a546                  build/default/production/_ext/1639979382/sdcard.o:_isInitialized
                  0x01a388                  build/default/production/_ext/1639979382/system.o:_disable6volt
                  0x01a392                  build/default/production/_ext/1639979382/system.o:_enable6volt
                  0x01a35e                  build/default/production/_ext/1639979382/system.o:_initialize
                  0x0180a8                  build/default/production/_ext/1639979382/uart1.o:_copyFrom
                  0x018168                  build/default/production/_ext/1639979382/uart1.o:_dropFrom
                  0x018196                  build/default/production/_ext/1639979382/uart1.o:_flush
                  0x017f6a                  build/default/production/_ext/1639979382/uart1.o:_getRxSize
                  0x017eca                  build/default/production/_ext/1639979382/uart1.o:_initUart
                  0x018112                  build/default/production/_ext/1639979382/uart1.o:_receiveFrom
                  0x01801c                  build/default/production/_ext/1639979382/uart1.o:_sendFrom
                  0x01808a                  build/default/production/_ext/1639979382/uart1.o:_setBaudRate
                  0x018652                  build/default/production/_ext/1639979382/uart2.o:_copyFrom
                  0x018712                  build/default/production/_ext/1639979382/uart2.o:_dropFrom
                  0x018740                  build/default/production/_ext/1639979382/uart2.o:_flush
                  0x018514                  build/default/production/_ext/1639979382/uart2.o:_getRxSize
                  0x018476                  build/default/production/_ext/1639979382/uart2.o:_initUart
                  0x0186bc                  build/default/production/_ext/1639979382/uart2.o:_receiveFrom
                  0x0185c6                  build/default/production/_ext/1639979382/uart2.o:_sendFrom
                  0x018634                  build/default/production/_ext/1639979382/uart2.o:_setBaudRate
                  0x01837e                  build/default/production/_ext/1639979382/uart3.o:_copyFrom
                  0x01843e                  build/default/production/_ext/1639979382/uart3.o:_dropFrom
                  0x01846c                  build/default/production/_ext/1639979382/uart3.o:_flush
                  0x018240                  build/default/production/_ext/1639979382/uart3.o:_getRxSize
                  0x0181a0                  build/default/production/_ext/1639979382/uart3.o:_initUart
                  0x0183e8                  build/default/production/_ext/1639979382/uart3.o:_receiveFrom
                  0x0182f2                  build/default/production/_ext/1639979382/uart3.o:_sendFrom
                  0x018360                  build/default/production/_ext/1639979382/uart3.o:_setBaudRate
                  0x01941c                  build/default/production/_ext/1639979382/usb.o:_ProcessIO
                  0x0195ee                  build/default/production/_ext/1639979382/usb.o:_debugPrintfUSB
                  0x01956a                  build/default/production/_ext/1639979382/usb.o:_getState
                  0x01961e                  build/default/production/_ext/1639979382/usb.o:_initialize
                  0x019594                  build/default/production/_ext/1639979382/usb.o:_printUSB
                  0x0195b0                  build/default/production/_ext/1639979382/usb.o:_printfUSB
                  0x019574                  build/default/production/_ext/1639979382/usb.o:_putUSB
                  0x0195da                  build/default/production/_ext/1639979382/usb.o:_setDebugPrintState
                  0x0178ee                  build/default/production/_ext/1749136748/SD_support.o:_write1
                  0x01790e                  build/default/production/_ext/1749136748/SD_support.o:_write2
                  0x01792e                  build/default/production/_ext/1749136748/SD_support.o:_write3
                  0x01794e                  build/default/production/_ext/1749136748/SD_support.o:_writeln1
                  0x01796a                  build/default/production/_ext/1749136748/SD_support.o:_writeln2
                  0x017986                  build/default/production/_ext/1749136748/SD_support.o:_writeln3
                  0x01a3ec                  build/default/production/_ext/1749136748/non_pwm_led.o:_setOffLED1
                  0x01a446                  build/default/production/_ext/1749136748/non_pwm_led.o:_setOffLED2
                  0x01a3e2                  build/default/production/_ext/1749136748/non_pwm_led.o:_setOnLED1
                  0x01a43c                  build/default/production/_ext/1749136748/non_pwm_led.o:_setOnLED2
                  0x002ea8                  fclose.XXelo:_closeall
                  0x0022d4                  printf_s.XXeo:_prout
                  0x001a22                  sprintf_cdfFnopsuxX.XXeo:_prout
                  0x001868                  sscanf_cdnopuxX.XXeo:_scin
                  0x0013a4                  vsprintf.XXeo:_prout

Memory Configuration

Name             Origin             Length             Attributes
data             0x000800           0x004000           a !xr
reset            0x000000           0x000004  
ivt              0x000004           0x0000fc  
_reserved        0x000100           0x000004  
aivt             0x000104           0x0000fc  
program          0x000200           0x02a9f6           xr
CONFIG3          0x02abfa           0x000002  
CONFIG2          0x02abfc           0x000002  
CONFIG1          0x02abfe           0x000002  
*default*        0x000000           0xffffffff  

Linker script and memory map

LOAD build/default/production/_ext/1639979382/button.o
LOAD build/default/production/_ext/1639979382/camera.o
LOAD build/default/production/_ext/1639979382/co2.o
LOAD build/default/production/_ext/1639979382/datalog.o
LOAD build/default/production/_ext/1639979382/file.o
LOAD build/default/production/_ext/1639979382/led.o
LOAD build/default/production/_ext/1639979382/nesi.o
LOAD build/default/production/_ext/1639979382/powerDriver.o
LOAD build/default/production/_ext/1639979382/resistiveSensors.o
LOAD build/default/production/_ext/1639979382/sdcard.o
LOAD build/default/production/_ext/1639979382/system.o
LOAD build/default/production/_ext/1639979382/usb.o
LOAD build/default/production/_ext/1639979382/dateTime.o
LOAD build/default/production/_ext/1639979382/uart1.o
LOAD build/default/production/_ext/1639979382/uart2.o
LOAD build/default/production/_ext/1639979382/uart3.o
LOAD build/default/production/_ext/1639979382/camera2.o
LOAD build/default/production/_ext/1161271966/FSIO.o
LOAD build/default/production/_ext/1161271966/SD-SPI.o
LOAD build/default/production/_ext/1464792115/Analog2digital.o
LOAD build/default/production/_ext/1464792115/dateTime_RTC.o
LOAD build/default/production/_ext/1464792115/Encoder.o
LOAD build/default/production/_ext/1464792115/I2CDrivers.o
LOAD build/default/production/_ext/1464792115/PortBitDrivers.o
LOAD build/default/production/_ext/1464792115/RadiationSensorDriver.o
LOAD build/default/production/_ext/1464792115/RedGreenBlueDrivers.o
LOAD build/default/production/_ext/1464792115/SensorDirviers.o
LOAD build/default/production/_ext/1464792115/HdwrTest.o
LOAD build/default/production/_ext/1464792115/NVMDrivers.o
LOAD build/default/production/_ext/1464792115/OptoDrivers.o
LOAD build/default/production/_ext/1464792115/multiMotorDrivers.o
LOAD build/default/production/_ext/1464792115/TempHumidPresDrivers.o
LOAD build/default/production/_ext/1749136748/non_pwm_led.o
LOAD build/default/production/_ext/1749136748/main.o
LOAD build/default/production/_ext/1749136748/kernel13.o
LOAD build/default/production/_ext/1749136748/kernel14.o
LOAD build/default/production/_ext/1749136748/SD_support.o
LOAD build/default/production/_ext/1749136748/kernel15.o
LOAD build/default/production/_ext/1749136748/kernel16.o
LOAD build/default/production/_ext/1749136748/kernel17.o
LOAD build/default/production/_ext/1749136748/kernel18.o
LOAD build/default/production/_ext/1749136748/kernel12.o
LOAD build/default/production/_ext/1749136748/kernel19.o
LOAD build/default/production/_ext/1161263815/usb_descriptors.o
LOAD build/default/production/_ext/1161263815/usb_device.o
LOAD build/default/production/_ext/1161263815/usb_function_msd.o
LOAD build/default/production/_ext/1161263815/usb_function_cdc.o
                    0x0001                  __MPLAB_BUILD = 0x1
LOAD pPIC24Fxxx
                    0x2abfa                  __CONFIG3 = 0x2abfa
                    0x2abfc                  __CONFIG2 = 0x2abfc
                    0x2abfe                  __CONFIG1 = 0x2abfe
                    0x0004                  __IVT_BASE = 0x4
                    0x0104                  __AIVT_BASE = 0x104
                    0x0800                  __DATA_BASE = 0x800
                    0x4000                  __DATA_LENGTH = 0x4000
                    0x0200                  __CODE_BASE = 0x200
                    0x2a9f8                  __CODE_LENGTH = 0x2a9f8

.reset            0x000000          0x4
                  0x000000          0x2 SHORT 0x200 ABSOLUTE (__reset)
                  0x000001          0x2 SHORT 0x4
                  0x000002          0x2 SHORT 0x0 ((ABSOLUTE (__reset) >> 0x10) & 0x7f)
                  0x000003          0x2 SHORT 0x0

.text             0x000200       0x4146
 *(.init)
 .init            0x000200         0x3c c:/apps/microchip/xc16/v1.26/bin/bin/../../lib\liblega-pic30-elf.a(crt0_standard.o)
                  0x000200                  __resetPRI
                  0x000200                  __reset
                  0x00022c                  __psv_init
 .init            0x00023c         0x6c c:/apps/microchip/xc16/v1.26/bin/bin/../../lib\liblega-pic30-elf.a(data_init_standard.o)
                  0x00023c                  __data_init_standard
                  0x00023c                  __data_init
 *(.user_init)
 *(.handle)
 .handle          0x0002a8        0x244 jump_table
 *(.isr*)
 .isr             0x0004ec          0x4 default_isr
                  0x0004ec                  __DefaultInterrupt
 *(.libc)
 .libc            0x0004f0         0x12 c:/apps/microchip/xc16/v1.26/bin/bin/../../lib\liblega-pic30-elf.a(close.Leo)
                  0x0004f0                  _close
 .libc            0x000502         0x5c c:/apps/microchip/xc16/v1.26/bin/bin/../../lib\liblega-pic30-elf.a(write.Leo)
                  0x000502                  _write
 .libc            0x00055e         0x12 c:/apps/microchip/xc16/v1.26/bin/bin/../../lib\liblega-pic30-elf.a(remove.Leo)
                  0x00055e                  _remove
 .libc            0x000570         0x28 c:/apps/microchip/xc16/v1.26/bin/bin/../../lib\liblega-pic30-elf.a(sbrk.Leo)
                  0x000570                  _sbrk
 .libc            0x000598         0x1a c:/apps/microchip/xc16/v1.26/bin/bin/../../lib\liblega-pic30-elf.a(brk.Lelo)
                  0x000598                  _brk
 *(.libm)
 *(.libdsp)
 *(.lib*)
 .libm.divsi3     0x0005b2         0x1e c:/apps/microchip/xc16/v1.26/bin/bin/../../lib\libfastm-elf.a(divsi3.eo)
                  0x0005b2                  ___divsi3
 .libm.eqsf2      0x0005d0          0x4 c:/apps/microchip/xc16/v1.26/bin/bin/../../lib\libfastm-elf.a(feqltle.eo)
                  0x0005d0                  ___eqsf2
                  0x0005d0                  ___ltsf2
                  0x0005d0                  ___lesf2
 .libm.gtsf2      0x0005d4          0x4 c:/apps/microchip/xc16/v1.26/bin/bin/../../lib\libfastm-elf.a(fgtge.eo)
                  0x0005d4                  ___gesf2
                  0x0005d4                  ___gtsf2
 .libm.fixsfsi    0x0005d8         0x42 c:/apps/microchip/xc16/v1.26/bin/bin/../../lib\libfastm-elf.a(fixsfsi.eo)
                  0x0005d8                  _(float, int, long long, short, float, short, int)
 .libm.floatsisf
                  0x00061a          0x6 c:/apps/microchip/xc16/v1.26/bin/bin/../../lib\libfastm-elf.a(floatsisf.eo)
                  0x00061a                  ___floatsisf
 .libm.floatunsisf
                  0x000620          0x4 c:/apps/microchip/xc16/v1.26/bin/bin/../../lib\libfastm-elf.a(floatunsisf.eo)
                  0x000620                  ___floatunsisf
 .libm.funpack    0x000624         0x2a c:/apps/microchip/xc16/v1.26/bin/bin/../../lib\libfastm-elf.a(funpack.eo)
                  0x000624                  __funpack
 .libm.__PplusBdi
                  0x00064e         0x26 c:/apps/microchip/xc16/v1.26/bin/bin/../../lib\libfastm-elf.a(divmoddi3.eo)
 .libm.__PminusBdi
                  0x000674         0x26 c:/apps/microchip/xc16/v1.26/bin/bin/../../lib\libfastm-elf.a(divmoddi3.eo)
 .libm.__udivmoddi3
                  0x00069a         0xe6 c:/apps/microchip/xc16/v1.26/bin/bin/../../lib\libfastm-elf.a(divmoddi3.eo)
                  0x00069a                  ___udivmoddi3
 .libm.__udivdi3
                  0x000780          0xe c:/apps/microchip/xc16/v1.26/bin/bin/../../lib\libfastm-elf.a(divmoddi3.eo)
                  0x000780                  ___udivdi3
 .libm.__umoddi3
                  0x00078e          0x8 c:/apps/microchip/xc16/v1.26/bin/bin/../../lib\libfastm-elf.a(divmoddi3.eo)
                  0x00078e                  ___umoddi3
 .libm.__divdi3
                  0x000796         0x60 c:/apps/microchip/xc16/v1.26/bin/bin/../../lib\libfastm-elf.a(divmoddi3.eo)
                  0x000796                  ___divdi3
 .libm.__moddi3
                  0x0007f6         0x5c c:/apps/microchip/xc16/v1.26/bin/bin/../../lib\libfastm-elf.a(divmoddi3.eo)
                  0x0007f6                  ___moddi3
 .libm.__muldi3
                  0x000852         0x52 c:/apps/microchip/xc16/v1.26/bin/bin/../../lib\libfastm-elf.a(muldi3.eo)
                  0x000852                  ___muldi3
 .libmx           0x0008a4        0x1dc c:/apps/microchip/xc16/v1.26/bin/bin/../../lib\libfastm-elf.a(addsf3x.eo)
                  0x0008a4                  ___subsf3x
                  0x0008a4                  ___subsf3
                  0x0008b6                  ___addsf3x
                  0x0008b6                  ___addsf3
 .libmx           0x000a80        0x10c c:/apps/microchip/xc16/v1.26/bin/bin/../../lib\libfastm-elf.a(mulsf3x.eo)
                  0x000a80                  ___mulsf3x
                  0x000a80                  ___mulsf3
 .libmx           0x000b8c         0xda c:/apps/microchip/xc16/v1.26/bin/bin/../../lib\libfastm-elf.a(udivsi3x.eo)
                  0x000b8c                  ___udivsi3
                  0x000b8c                  ___udivsi3x
 .libmx           0x000c66          0x6 c:/apps/microchip/xc16/v1.26/bin/bin/../../lib\libfastm-elf.a(umodsi3x.eo)
                  0x000c66                  ___umodsi3x
                  0x000c66                  ___umodsi3
 .libmx           0x000c6c         0x5e c:/apps/microchip/xc16/v1.26/bin/bin/../../lib\libfastm-elf.a(unpackdnrmfx.eo)
                  0x000c6c                  __unpackdnrmf
 .libmx           0x000cca        0x1be c:/apps/microchip/xc16/v1.26/bin/bin/../../lib\libfastm-elf.a(divsf3x.eo)
                  0x000cca                  ___divsf3x
                  0x000cca                  ___divsf3
                  0x000e5c                  __sdivf
 .libmx           0x000e88         0x12 c:/apps/microchip/xc16/v1.26/bin/bin/../../lib\libfastm-elf.a(propnanfx.eo)
                  0x000e88                  __propnanf
 .libmx           0x000e9a         0x66 c:/apps/microchip/xc16/v1.26/bin/bin/../../lib\libfastm-elf.a(unpackfx.eo)
                  0x000e9a                  __unpackf
 .libmx           0x000f00         0x54 c:/apps/microchip/xc16/v1.26/bin/bin/../../lib\libfastm-elf.a(dnrmpackfx.eo)
                  0x000f00                  __dnrmpackf
 .libmx           0x000f54         0xa6 c:/apps/microchip/xc16/v1.26/bin/bin/../../lib\libfastm-elf.a(spackfx.eo)
                  0x000f54                  __spackf
 .libm.fcompare
                  0x000ffa         0x36 c:/apps/microchip/xc16/v1.26/bin/bin/../../lib\libfastm-elf.a(fcompare.eo)
                  0x000ffa                  __fcompare
 .libm.floatdisf
                  0x001030         0x20 c:/apps/microchip/xc16/v1.26/bin/bin/../../lib\libfastm-elf.a(floatdisf.eo)
                  0x001030                  ___floatdisf
 .libm.floatundisf
                  0x001050         0x5e c:/apps/microchip/xc16/v1.26/bin/bin/../../lib\libfastm-elf.a(floatundisf.eo)
                  0x001050                  ___floatundisf
 .libm.fpack      0x0010ae         0x4c c:/apps/microchip/xc16/v1.26/bin/bin/../../lib\libfastm-elf.a(fpack.eo)
                  0x0010ae                  __fpack
 .libm.funpack2
                  0x0010fa         0x10 c:/apps/microchip/xc16/v1.26/bin/bin/../../lib\libfastm-elf.a(funpack2.eo)
                  0x0010fa                  __funpack2
 .libm.umuldi3    0x00110a         0x44 c:/apps/microchip/xc16/v1.26/bin/bin/../../lib\libfastm-elf.a(umuldi3.eo)
                  0x00110a                  ___umuldi3
 .libmx           0x00114e         0x34 c:/apps/microchip/xc16/v1.26/bin/bin/../../lib\libfastm-elf.a(typefx.eo)
                  0x00114e                  __typef
 .libc.isspace    0x001182         0x10 c:/apps/microchip/xc16/v1.26/bin/bin/../../lib\liblega-c-elf.a(isspace.XXeso)
                  0x001182                  _isspace
 .libc.tolower    0x001192          0xe c:/apps/microchip/xc16/v1.26/bin/bin/../../lib\liblega-c-elf.a(tolower.XXeso)
                  0x001192                  _tolower
 .libc.toupper    0x0011a0          0xe c:/apps/microchip/xc16/v1.26/bin/bin/../../lib\liblega-c-elf.a(toupper.XXeso)
                  0x0011a0                  _toupper
 .libc.atoi       0x0011ae          0x6 c:/apps/microchip/xc16/v1.26/bin/bin/../../lib\liblega-c-elf.a(atoi.XXeo)
                  0x0011ae                  _atoi
 .libc.memcpy     0x0011b4          0xe c:/apps/microchip/xc16/v1.26/bin/bin/../../lib\liblega-c-elf.a(memcpy.XXeo)
                  0x0011b4                  _memcpy
 .libc.memset     0x0011c2          0xe c:/apps/microchip/xc16/v1.26/bin/bin/../../lib\liblega-c-elf.a(memset.XXeo)
                  0x0011c2                  _memset
 .libc.puts       0x0011d0         0x16 c:/apps/microchip/xc16/v1.26/bin/bin/../../lib\liblega-c-elf.a(puts.XXeo)
                  0x0011d0                  _puts
 .libc.strcmp     0x0011e6         0x20 c:/apps/microchip/xc16/v1.26/bin/bin/../../lib\liblega-c-elf.a(strcmp.XXeo)
                  0x0011e6                  _strcmp
 .libc.strcpy     0x001206          0xc c:/apps/microchip/xc16/v1.26/bin/bin/../../lib\liblega-c-elf.a(strcpy.XXeo)
                  0x001206                  _strcpy
 .libc.strlen     0x001212          0xc c:/apps/microchip/xc16/v1.26/bin/bin/../../lib\liblega-c-elf.a(strlen.XXeo)
                  0x001212                  _strlen
 .libc.strncpy    0x00121e         0x1e c:/apps/microchip/xc16/v1.26/bin/bin/../../lib\liblega-c-elf.a(strncpy.XXeo)
                  0x00121e                  _strncpy
 .libc.strtok     0x00123c         0x34 c:/apps/microchip/xc16/v1.26/bin/bin/../../lib\liblega-c-elf.a(strtok.XXeo)
                  0x00123c                  _strtok
 .libc._Stoul     0x001270        0x134 c:/apps/microchip/xc16/v1.26/bin/bin/../../lib\liblega-c-elf.a(xstoul.XXeo)
                  0x001270                  __Stoul
 .libc.prout      0x0013a4          0xe c:/apps/microchip/xc16/v1.26/bin/bin/../../lib\liblega-c-elf.a(vsprintf.XXeo)
                  0x0013a4                  vsprintf.XXeo:_prout
 .libc.vsprintf
                  0x0013b2         0x1a c:/apps/microchip/xc16/v1.26/bin/bin/../../lib\liblega-c-elf.a(vsprintf.XXeo)
                  0x0013b2                  _vsprintf
 .libc._Printf    0x0013cc        0x164 c:/apps/microchip/xc16/v1.26/bin/bin/../../lib\liblega-c-elf.a(xprintf.XXeo)
                  0x0013cc                  __Printf
 .libc._Putfld    0x001530        0x2ca c:/apps/microchip/xc16/v1.26/bin/bin/../../lib\liblega-c-elf.a(xputfld.XXeo)
                  0x001530                  __Putfld
 .libc.fputc      0x0017fa         0x4c c:/apps/microchip/xc16/v1.26/bin/bin/../../lib\liblega-c-elf.a(fputc.XXelo)
                  0x0017fa                  _fputc
 .libc.strchr     0x001846         0x1e c:/apps/microchip/xc16/v1.26/bin/bin/../../lib\liblega-c-elf.a(strchr.XXelo)
                  0x001846                  _strchr
 .libc._Vacopy    0x001864          0x4 c:/apps/microchip/xc16/v1.26/bin/bin/../../lib\liblega-c-elf.a(xvacopy.XXelo)
                  0x001864                  __Vacopy
 .libc.scin       0x001868         0x18 c:/apps/microchip/xc16/v1.26/bin/bin/../../lib\liblega-c-elf.a(sscanf_cdnopuxX.XXeo)
                  0x001868                  sscanf_cdnopuxX.XXeo:_scin
 .libc._sscanf_cdnopuxX
                  0x001880         0x12 c:/apps/microchip/xc16/v1.26/bin/bin/../../lib\liblega-c-elf.a(sscanf_cdnopuxX.XXeo)
                  0x001880                  __sscanf_cdnopuxX
 .libc.__Scanf_cdnopuxX
                  0x001892        0x190 c:/apps/microchip/xc16/v1.26/bin/bin/../../lib\liblega-c-elf.a(xscanf_cdnopuxX.XXeo)
                  0x001892                  ___Scanf_cdnopuxX
 .libc.prout      0x001a22          0xe c:/apps/microchip/xc16/v1.26/bin/bin/../../lib\liblega-c-elf.a(sprintf_cdfFnopsuxX.XXeo)
                  0x001a22                  sprintf_cdfFnopsuxX.XXeo:_prout
 .libc._sprintf_cdfFnopsuxX
                  0x001a30         0x1e c:/apps/microchip/xc16/v1.26/bin/bin/../../lib\liblega-c-elf.a(sprintf_cdfFnopsuxX.XXeo)
                  0x001a30                  __sprintf_cdfFnopuxX
                  0x001a30                  __sprintf_cdfFnopsuxX
                  0x001a30                  __sprintf_0
                  0x001a30                  __sprintf_s
                  0x001a30                  __sprintf_cdnopuxX
                  0x001a30                  __sprintf_cdnopsuxX
 .libc.__Printf_cdfFnopsuxX
                  0x001a4e        0x164 c:/apps/microchip/xc16/v1.26/bin/bin/../../lib\liblega-c-elf.a(xprintf_cdfFnopsuxX.XXeo)
                  0x001a4e                  ___Printf_cdfFnopuxX
                  0x001a4e                  ___Printf_s
                  0x001a4e                  ___Printf_cdfFnopsuxX
                  0x001a4e                  ___Printf_cdnopuxX
                  0x001a4e                  ___Printf_cdnopsuxX
 .libc.__Putfld_cdfFnopsuxX
                  0x001bb2        0x2ca c:/apps/microchip/xc16/v1.26/bin/bin/../../lib\liblega-c-elf.a(xputfld_cdfFnopsuxX.XXeo)
                  0x001bb2                  ___Putfld_cdnopuxX
                  0x001bb2                  ___Putfld_cdnopsuxX
                  0x001bb2                  ___Putfld_cdfFnopuxX
                  0x001bb2                  ___Putfld_cdfFnopsuxX
                  0x001bb2                  ___Putfld_s
 .libc.__Ldtob_cdfFnopsuxX
                  0x001e7c        0x250 c:/apps/microchip/xc16/v1.26/bin/bin/../../lib\liblega-c-elf.a(xldtob_cdfFnopsuxX.XXeo)
                  0x001e7c                  ___Ldtob_cdfFnopsuxX
                  0x001e7c                  ___Ldtob_cdfFnopuxX
 .libc.__Genld_cdfFnopsuxX
                  0x0020cc        0x208 c:/apps/microchip/xc16/v1.26/bin/bin/../../lib\liblega-c-elf.a(xgenld_cdfFnopsuxX.XXeo)
                  0x0020cc                  ___Genld_cdfFnopsuxX
                  0x0020cc                  ___Genld_cdfFnopuxX
 .libc.prout      0x0022d4         0x1c c:/apps/microchip/xc16/v1.26/bin/bin/../../lib\liblega-c-elf.a(printf_s.XXeo)
                  0x0022d4                  printf_s.XXeo:_prout
 .libc._printf_s
                  0x0022f0         0x10 c:/apps/microchip/xc16/v1.26/bin/bin/../../lib\liblega-c-elf.a(printf_s.XXeo)
                  0x0022f0                  __printf_s
                  0x0022f0                  __printf_0
 .libc.div        0x002300         0x16 c:/apps/microchip/xc16/v1.26/bin/bin/../../lib\liblega-c-elf.a(div.XXeo)
                  0x002300                  _div
 .libc._DNKfflush
                  0x002316         0x76 c:/apps/microchip/xc16/v1.26/bin/bin/../../lib\liblega-c-elf.a(fflush.XXeo)
                  0x002316                  __DNKfflush
 .libc.fputs      0x00238c         0x90 c:/apps/microchip/xc16/v1.26/bin/bin/../../lib\liblega-c-elf.a(fputs.XXeo)
                  0x00238c                  _fputs
 .libc.fwrite     0x00241c         0xa8 c:/apps/microchip/xc16/v1.26/bin/bin/../../lib\liblega-c-elf.a(fwrite.XXeo)
                  0x00241c                  _fwrite
 .libc.ldiv       0x0024c4         0x2a c:/apps/microchip/xc16/v1.26/bin/bin/../../lib\liblega-c-elf.a(ldiv.XXeo)
                  0x0024c4                  _ldiv
 .libc.memchr     0x0024ee         0x14 c:/apps/microchip/xc16/v1.26/bin/bin/../../lib\liblega-c-elf.a(memchr.XXeo)
                  0x0024ee                  _memchr
 .libc.strcspn    0x002502         0x22 c:/apps/microchip/xc16/v1.26/bin/bin/../../lib\liblega-c-elf.a(strcspn.XXeo)
                  0x002502                  _strcspn
 .libc.strrchr    0x002524         0x14 c:/apps/microchip/xc16/v1.26/bin/bin/../../lib\liblega-c-elf.a(strrchr.XXeo)
                  0x002524                  _strrchr
 .libc.strspn     0x002538         0x20 c:/apps/microchip/xc16/v1.26/bin/bin/../../lib\liblega-c-elf.a(strspn.XXeo)
                  0x002538                  _strspn
 .libc._Fwprep    0x002558         0x8e c:/apps/microchip/xc16/v1.26/bin/bin/../../lib\liblega-c-elf.a(xfwprep.XXeo)
                  0x002558                  __Fwprep
 .libc._Ldtob     0x0025e6        0x3f2 c:/apps/microchip/xc16/v1.26/bin/bin/../../lib\liblega-c-elf.a(xldtob.XXeo)
                  0x0025e6                  __Ldtob
 .libc._LDunscale
                  0x0029d8         0x54 c:/apps/microchip/xc16/v1.26/bin/bin/../../lib\liblega-c-elf.a(xldunsca.XXeo)
                  0x0029d8                  __LDunscale
 .libc._Litob     0x002a2c        0x25e c:/apps/microchip/xc16/v1.26/bin/bin/../../lib\liblega-c-elf.a(xlitob.XXeo)
                  0x002a2c                  __Litob
 .libc._Puttxt    0x002c8a        0x178 c:/apps/microchip/xc16/v1.26/bin/bin/../../lib\liblega-c-elf.a(xputtxt.XXeo)
                  0x002c8a                  __Puttxt
 .libc.closeallreg
                  0x002e02          0x4 c:/apps/microchip/xc16/v1.26/bin/bin/../../lib\liblega-c-elf.a(fclose.XXelo)
 .libc._Closreg
                  0x002e06         0x12 c:/apps/microchip/xc16/v1.26/bin/bin/../../lib\liblega-c-elf.a(fclose.XXelo)
                  0x002e06                  __Closreg
 .libc.fclose     0x002e18         0x90 c:/apps/microchip/xc16/v1.26/bin/bin/../../lib\liblega-c-elf.a(fclose.XXelo)
                  0x002e18                  _fclose
 .libc.closeall
                  0x002ea8         0x20 c:/apps/microchip/xc16/v1.26/bin/bin/../../lib\liblega-c-elf.a(fclose.XXelo)
                  0x002ea8                  fclose.XXelo:_closeall
 .libc._Atexit    0x002ec8         0x18 c:/apps/microchip/xc16/v1.26/bin/bin/../../lib\liblega-c-elf.a(xatexit.XXelo)
                  0x002ec8                  __Atexit
 .libc._Dnorm     0x002ee0         0x98 c:/apps/microchip/xc16/v1.26/bin/bin/../../lib\liblega-c-elf.a(xdnorm.XXelo)
                  0x002ee0                  __Dnorm
 .libc._LDscale
                  0x002f78         0xf6 c:/apps/microchip/xc16/v1.26/bin/bin/../../lib\liblega-c-elf.a(xldscale.XXelo)
                  0x002f78                  __LDscale
 .libc.__Getfld_cdnopuxX
                  0x00306e        0x138 c:/apps/microchip/xc16/v1.26/bin/bin/../../lib\liblega-c-elf.a(xgetfld_cdnopuxX.XXeo)
                  0x00306e                  ___Getfld_cdnopuxX
 .libc.free       0x0031a6         0x64 c:/apps/microchip/xc16/v1.26/bin/bin/../../lib\liblega-c-elf.a(free.XXeo)
                  0x0031a6                  _free
 .libc.findmem    0x00320a         0x66 c:/apps/microchip/xc16/v1.26/bin/bin/../../lib\liblega-c-elf.a(malloc.XXeo)
 .libc.malloc     0x003270         0x54 c:/apps/microchip/xc16/v1.26/bin/bin/../../lib\liblega-c-elf.a(malloc.XXeo)
                  0x003270                  _malloc
 .libc._Genld     0x0032c4        0x264 c:/apps/microchip/xc16/v1.26/bin/bin/../../lib\liblega-c-elf.a(xgenld.XXeo)
                  0x0032c4                  __Genld
 .libc._Getint    0x003528        0x2bc c:/apps/microchip/xc16/v1.26/bin/bin/../../lib\liblega-c-elf.a(xgetint.XXeo)
                  0x003528                  __Getint
 .libc._Getmem    0x0037e4         0x14 c:/apps/microchip/xc16/v1.26/bin/bin/../../lib\liblega-c-elf.a(xgetmem.XXeo)
                  0x0037e4                  __Getmem
 .libc.ranmatch
                  0x0037f8         0x3a c:/apps/microchip/xc16/v1.26/bin/bin/../../lib\liblega-c-elf.a(xgetstr.XXeo)
 .libc._Getstr    0x003832        0x1e6 c:/apps/microchip/xc16/v1.26/bin/bin/../../lib\liblega-c-elf.a(xgetstr.XXeo)
                  0x003832                  __Getstr
 .libc._Stoll     0x003a18         0xb8 c:/apps/microchip/xc16/v1.26/bin/bin/../../lib\liblega-c-elf.a(xstoll.XXeo)
                  0x003a18                  __Stoll
 .libc._Stoull    0x003ad0        0x18c c:/apps/microchip/xc16/v1.26/bin/bin/../../lib\liblega-c-elf.a(xstoull.XXeo)
                  0x003ad0                  __Stoull
 .libc.doclose    0x003c5c          0x4 c:/apps/microchip/xc16/v1.26/bin/bin/../../lib\liblega-pic30-elf.a(close.Leo)
 .libc.dowrite    0x003c60          0x4 c:/apps/microchip/xc16/v1.26/bin/bin/../../lib\liblega-pic30-elf.a(write.Leo)
 .libc.doremove
                  0x003c64          0x4 c:/apps/microchip/xc16/v1.26/bin/bin/../../lib\liblega-pic30-elf.a(remove.Leo)
 .libm.eqdf2      0x003c68          0xa c:/apps/microchip/xc16/v1.26/bin/bin/../../lib\libfastm-elf.a(deqltle.eo)
                  0x003c68                  ___eqdf2
                  0x003c68                  ___ltdf2
                  0x003c68                  ___ledf2
 .libm.gtdf2      0x003c72          0xa c:/apps/microchip/xc16/v1.26/bin/bin/../../lib\libfastm-elf.a(dgtge.eo)
                  0x003c72                  ___gtdf2
                  0x003c72                  ___gedf2
 .libm.extendsfdf2
                  0x003c7c         0x3e c:/apps/microchip/xc16/v1.26/bin/bin/../../lib\libfastm-elf.a(extendsfdf.eo)
                  0x003c7c                  ___extendsfdf2
 .libm.fixdfsi    0x003cba         0x58 c:/apps/microchip/xc16/v1.26/bin/bin/../../lib\libfastm-elf.a(fixdfsi.eo)
                  0x003cba                  _(float, int, long long, double, float, short, int)
 .libm.floatsidf
                  0x003d12          0x6 c:/apps/microchip/xc16/v1.26/bin/bin/../../lib\libfastm-elf.a(floatsidf.eo)
                  0x003d12                  ___floatsidf
 .libm.mulsi3     0x003d18          0xc c:/apps/microchip/xc16/v1.26/bin/bin/../../lib\libfastm-elf.a(mulsi3.eo)
                  0x003d18                  ___mulp32peds3
                  0x003d18                  ___mulsi3
                  0x003d18                  ___mulp32eds3
 .lib_dpfops      0x003d24         0xa2 c:/apps/microchip/xc16/v1.26/bin/bin/../../lib\libfastm-elf.a(dpadd.eo)
                  0x003d24                  ___subdf3
                  0x003d30                  ___adddf3
 .lib_dpfops      0x003dc6        0x15e c:/apps/microchip/xc16/v1.26/bin/bin/../../lib\libfastm-elf.a(dpdiv.eo)
                  0x003dc6                  ___divdf3
 .lib_dpfops      0x003f24        0x11a c:/apps/microchip/xc16/v1.26/bin/bin/../../lib\libfastm-elf.a(dpmul.eo)
                  0x003f24                  ___muldf3
 .lib_dpfops      0x00403e        0x128 c:/apps/microchip/xc16/v1.26/bin/bin/../../lib\libfastm-elf.a(dpsubs.eo)
                  0x004058                  __dxchg
                  0x004066                  __drshft
                  0x0040c0                  __dupchk
                  0x004122                  __drndex
                  0x00412c                  __dnsrnd
                  0x004158                  __dpakex
 .libm.dcompare
                  0x004166         0x52 c:/apps/microchip/xc16/v1.26/bin/bin/../../lib\libfastm-elf.a(dcompare.eo)
                  0x004166                  __dcompare
 .libm.dtype      0x0041b8         0x24 c:/apps/microchip/xc16/v1.26/bin/bin/../../lib\libfastm-elf.a(dtype.eo)
                  0x0041b8                  __dtype
 .libm.dunpack    0x0041dc         0x4e c:/apps/microchip/xc16/v1.26/bin/bin/../../lib\libfastm-elf.a(dunpack.eo)
                  0x0041dc                  __dunpack
 .libm.dunpack2
                  0x00422a         0x32 c:/apps/microchip/xc16/v1.26/bin/bin/../../lib\libfastm-elf.a(dunpack2.eo)
                  0x00422a                  __dunpack2
                  0x00424c                  __dreturnNaN
                  0x004252                  __dunpack2exit
 .libm.floatdidf
                  0x00425c         0x20 c:/apps/microchip/xc16/v1.26/bin/bin/../../lib\libfastm-elf.a(floatdidf.eo)
                  0x00425c                  ___floatdidf
 .libm.floatundidf
                  0x00427c         0x56 c:/apps/microchip/xc16/v1.26/bin/bin/../../lib\libfastm-elf.a(floatundidf.eo)
                  0x00427c                  ___floatundidf
 .libm.dpack      0x0042d2         0x58 c:/apps/microchip/xc16/v1.26/bin/bin/../../lib\libfastm-elf.a(dpack.eo)
                  0x0042d2                  __dpack
 .libm.dPropagateNaN
                  0x00432a         0x1c c:/apps/microchip/xc16/v1.26/bin/bin/../../lib\libfastm-elf.a(dpropagateNaN.eo)
                  0x00432a                  __dPropagateNaN

usercode
 *(usercode)

__CONFIG3
 *(__CONFIG3.sec*)

__CONFIG2         0x02abfc          0x2
 *(__CONFIG2.sec*)
 __CONFIG2.sec    0x02abfc          0x2 build/default/production/_ext/1639979382/system.o

__CONFIG1         0x02abfe          0x2
 *(__CONFIG1.sec*)
 __CONFIG1.sec    0x02abfe          0x2 build/default/production/_ext/1639979382/system.o

.comment          0x000000         0x5e
 *(.comment)
 .comment         0x000000         0x5e c:/apps/microchip/xc16/v1.26/bin/bin/../../lib\liblega-c-elf.a(xfiles.XXeo)

.debug_info       0x000000      0x30d9a
 *(.debug_info)
 .debug_info      0x000000       0x1062 build/default/production/_ext/1639979382/button.o
 .debug_info      0x001062       0x1297 build/default/production/_ext/1639979382/camera.o
 .debug_info      0x0022f9        0xa9d build/default/production/_ext/1639979382/co2.o
 .debug_info      0x002d96        0x413 build/default/production/_ext/1639979382/datalog.o
 .debug_info      0x0031a9        0xa98 build/default/production/_ext/1639979382/file.o
 .debug_info      0x003c41        0x9c3 build/default/production/_ext/1639979382/led.o
 .debug_info      0x004604       0x1019 build/default/production/_ext/1639979382/nesi.o
 .debug_info      0x00561d        0x758 build/default/production/_ext/1639979382/powerDriver.o
 .debug_info      0x005d75        0x930 build/default/production/_ext/1639979382/resistiveSensors.o
 .debug_info      0x0066a5        0xcad build/default/production/_ext/1639979382/sdcard.o
 .debug_info      0x007352       0x11b8 build/default/production/_ext/1639979382/system.o
 .debug_info      0x00850a       0x171e build/default/production/_ext/1639979382/usb.o
 .debug_info      0x009c28       0x1ea9 build/default/production/_ext/1639979382/dateTime.o
 .debug_info      0x00bad1       0x1324 build/default/production/_ext/1639979382/uart1.o
 .debug_info      0x00cdf5       0x12ae build/default/production/_ext/1639979382/uart2.o
 .debug_info      0x00e0a3       0x11b4 build/default/production/_ext/1639979382/uart3.o
 .debug_info      0x00f257       0x1287 build/default/production/_ext/1639979382/camera2.o
 .debug_info      0x0104de       0x4f71 build/default/production/_ext/1161271966/FSIO.o
 .debug_info      0x01544f       0x1bbe build/default/production/_ext/1161271966/SD-SPI.o
 .debug_info      0x01700d        0x8d5 build/default/production/_ext/1464792115/Analog2digital.o
 .debug_info      0x0178e2       0x1c1c build/default/production/_ext/1464792115/dateTime_RTC.o
 .debug_info      0x0194fe       0x10b4 build/default/production/_ext/1464792115/Encoder.o
 .debug_info      0x01a5b2       0x11b1 build/default/production/_ext/1464792115/I2CDrivers.o
 .debug_info      0x01b763       0x1ec5 build/default/production/_ext/1464792115/PortBitDrivers.o
 .debug_info      0x01d628        0xffe build/default/production/_ext/1464792115/RadiationSensorDriver.o
 .debug_info      0x01e626        0x9c1 build/default/production/_ext/1464792115/RedGreenBlueDrivers.o
 .debug_info      0x01efe7        0xbca build/default/production/_ext/1464792115/SensorDirviers.o
 .debug_info      0x01fbb1       0x1186 build/default/production/_ext/1464792115/HdwrTest.o
 .debug_info      0x020d37        0x7d2 build/default/production/_ext/1464792115/NVMDrivers.o
 .debug_info      0x021509        0x7c4 build/default/production/_ext/1464792115/OptoDrivers.o
 .debug_info      0x021ccd       0x22d1 build/default/production/_ext/1464792115/multiMotorDrivers.o
 .debug_info      0x023f9e       0x11ea build/default/production/_ext/1464792115/TempHumidPresDrivers.o
 .debug_info      0x025188        0x5ec build/default/production/_ext/1749136748/non_pwm_led.o
 .debug_info      0x025774        0xa63 build/default/production/_ext/1749136748/main.o
 .debug_info      0x0261d7        0x3ea build/default/production/_ext/1749136748/kernel13.o
 .debug_info      0x0265c1        0x49b build/default/production/_ext/1749136748/kernel14.o
 .debug_info      0x026a5c        0xca3 build/default/production/_ext/1749136748/SD_support.o
 .debug_info      0x0276ff        0x2f6 build/default/production/_ext/1749136748/kernel15.o
 .debug_info      0x0279f5        0x7d1 build/default/production/_ext/1749136748/kernel16.o
 .debug_info      0x0281c6        0x6c2 build/default/production/_ext/1749136748/kernel17.o
 .debug_info      0x028888        0xd19 build/default/production/_ext/1749136748/kernel18.o
 .debug_info      0x0295a1        0x654 build/default/production/_ext/1749136748/kernel12.o
 .debug_info      0x029bf5        0x1c5 build/default/production/_ext/1749136748/kernel19.o
 .debug_info      0x029dba        0x884 build/default/production/_ext/1161263815/usb_descriptors.o
 .debug_info      0x02a63e       0x2bae build/default/production/_ext/1161263815/usb_device.o
 .debug_info      0x02d1ec       0x20c1 build/default/production/_ext/1161263815/usb_function_msd.o
 .debug_info      0x02f2ad       0x1aed build/default/production/_ext/1161263815/usb_function_cdc.o
 *(.gnu.linkonce.wi.*)

.debug_abbrev     0x000000       0x4eb9
 *(.debug_abbrev)
 .debug_abbrev    0x000000        0x1c2 build/default/production/_ext/1639979382/button.o
 .debug_abbrev    0x0001c2        0x29c build/default/production/_ext/1639979382/camera.o
 .debug_abbrev    0x00045e        0x1b1 build/default/production/_ext/1639979382/co2.o
 .debug_abbrev    0x00060f        0x133 build/default/production/_ext/1639979382/datalog.o
 .debug_abbrev    0x000742        0x240 build/default/production/_ext/1639979382/file.o
 .debug_abbrev    0x000982        0x13b build/default/production/_ext/1639979382/led.o
 .debug_abbrev    0x000abd        0x148 build/default/production/_ext/1639979382/nesi.o
 .debug_abbrev    0x000c05        0x17c build/default/production/_ext/1639979382/powerDriver.o
 .debug_abbrev    0x000d81        0x191 build/default/production/_ext/1639979382/resistiveSensors.o
 .debug_abbrev    0x000f12        0x161 build/default/production/_ext/1639979382/sdcard.o
 .debug_abbrev    0x001073        0x15c build/default/production/_ext/1639979382/system.o
 .debug_abbrev    0x0011cf        0x2cc build/default/production/_ext/1639979382/usb.o
 .debug_abbrev    0x00149b        0x2d6 build/default/production/_ext/1639979382/dateTime.o
 .debug_abbrev    0x001771        0x238 build/default/production/_ext/1639979382/uart1.o
 .debug_abbrev    0x0019a9        0x24d build/default/production/_ext/1639979382/uart2.o
 .debug_abbrev    0x001bf6        0x238 build/default/production/_ext/1639979382/uart3.o
 .debug_abbrev    0x001e2e        0x272 build/default/production/_ext/1639979382/camera2.o
 .debug_abbrev    0x0020a0        0x2d8 build/default/production/_ext/1161271966/FSIO.o
 .debug_abbrev    0x002378        0x2bc build/default/production/_ext/1161271966/SD-SPI.o
 .debug_abbrev    0x002634        0x129 build/default/production/_ext/1464792115/Analog2digital.o
 .debug_abbrev    0x00275d        0x26c build/default/production/_ext/1464792115/dateTime_RTC.o
 .debug_abbrev    0x0029c9        0x194 build/default/production/_ext/1464792115/Encoder.o
 .debug_abbrev    0x002b5d        0x1c8 build/default/production/_ext/1464792115/I2CDrivers.o
 .debug_abbrev    0x002d25        0x198 build/default/production/_ext/1464792115/PortBitDrivers.o
 .debug_abbrev    0x002ebd        0x12f build/default/production/_ext/1464792115/RadiationSensorDriver.o
 .debug_abbrev    0x002fec         0xb8 build/default/production/_ext/1464792115/RedGreenBlueDrivers.o
 .debug_abbrev    0x0030a4         0xf6 build/default/production/_ext/1464792115/SensorDirviers.o
 .debug_abbrev    0x00319a        0x185 build/default/production/_ext/1464792115/HdwrTest.o
 .debug_abbrev    0x00331f         0xf6 build/default/production/_ext/1464792115/NVMDrivers.o
 .debug_abbrev    0x003415         0xea build/default/production/_ext/1464792115/OptoDrivers.o
 .debug_abbrev    0x0034ff        0x2db build/default/production/_ext/1464792115/multiMotorDrivers.o
 .debug_abbrev    0x0037da        0x1b7 build/default/production/_ext/1464792115/TempHumidPresDrivers.o
 .debug_abbrev    0x003991        0x117 build/default/production/_ext/1749136748/non_pwm_led.o
 .debug_abbrev    0x003aa8        0x162 build/default/production/_ext/1749136748/main.o
 .debug_abbrev    0x003c0a         0xc6 build/default/production/_ext/1749136748/kernel13.o
 .debug_abbrev    0x003cd0         0xfa build/default/production/_ext/1749136748/kernel14.o
 .debug_abbrev    0x003dca        0x1f0 build/default/production/_ext/1749136748/SD_support.o
 .debug_abbrev    0x003fba         0xb3 build/default/production/_ext/1749136748/kernel15.o
 .debug_abbrev    0x00406d        0x164 build/default/production/_ext/1749136748/kernel16.o
 .debug_abbrev    0x0041d1        0x102 build/default/production/_ext/1749136748/kernel17.o
 .debug_abbrev    0x0042d3        0x1e1 build/default/production/_ext/1749136748/kernel18.o
 .debug_abbrev    0x0044b4        0x148 build/default/production/_ext/1749136748/kernel12.o
 .debug_abbrev    0x0045fc         0x5f build/default/production/_ext/1749136748/kernel19.o
 .debug_abbrev    0x00465b        0x10f build/default/production/_ext/1161263815/usb_descriptors.o
 .debug_abbrev    0x00476a        0x2b2 build/default/production/_ext/1161263815/usb_device.o
 .debug_abbrev    0x004a1c        0x289 build/default/production/_ext/1161263815/usb_function_msd.o
 .debug_abbrev    0x004ca5        0x214 build/default/production/_ext/1161263815/usb_function_cdc.o

.debug_line       0x000000       0x51a5
 *(.debug_line)
 .debug_line      0x000000         0xdb build/default/production/_ext/1639979382/button.o
 .debug_line      0x0000db        0x192 build/default/production/_ext/1639979382/camera.o
 .debug_line      0x00026d         0xa6 build/default/production/_ext/1639979382/co2.o
 .debug_line      0x000313         0x80 build/default/production/_ext/1639979382/datalog.o
 .debug_line      0x000393        0x143 build/default/production/_ext/1639979382/file.o
 .debug_line      0x0004d6         0x9e build/default/production/_ext/1639979382/led.o
 .debug_line      0x000574        0x10b build/default/production/_ext/1639979382/nesi.o
 .debug_line      0x00067f         0xbd build/default/production/_ext/1639979382/powerDriver.o
 .debug_line      0x00073c         0xe6 build/default/production/_ext/1639979382/resistiveSensors.o
 .debug_line      0x000822         0x9c build/default/production/_ext/1639979382/sdcard.o
 .debug_line      0x0008be         0x9f build/default/production/_ext/1639979382/system.o
 .debug_line      0x00095d        0x22f build/default/production/_ext/1639979382/usb.o
 .debug_line      0x000b8c        0x347 build/default/production/_ext/1639979382/dateTime.o
 .debug_line      0x000ed3        0x112 build/default/production/_ext/1639979382/uart1.o
 .debug_line      0x000fe5        0x112 build/default/production/_ext/1639979382/uart2.o
 .debug_line      0x0010f7        0x112 build/default/production/_ext/1639979382/uart3.o
 .debug_line      0x001209        0x18c build/default/production/_ext/1639979382/camera2.o
 .debug_line      0x001395       0x166a build/default/production/_ext/1161271966/FSIO.o
 .debug_line      0x0029ff        0x2ad build/default/production/_ext/1161271966/SD-SPI.o
 .debug_line      0x002cac        0x10e build/default/production/_ext/1464792115/Analog2digital.o
 .debug_line      0x002dba        0x372 build/default/production/_ext/1464792115/dateTime_RTC.o
 .debug_line      0x00312c        0x128 build/default/production/_ext/1464792115/Encoder.o
 .debug_line      0x003254        0x1dd build/default/production/_ext/1464792115/I2CDrivers.o
 .debug_line      0x003431        0x1cf build/default/production/_ext/1464792115/PortBitDrivers.o
 .debug_line      0x003600         0xec build/default/production/_ext/1464792115/RadiationSensorDriver.o
 .debug_line      0x0036ec         0xd6 build/default/production/_ext/1464792115/RedGreenBlueDrivers.o
 .debug_line      0x0037c2        0x10b build/default/production/_ext/1464792115/SensorDirviers.o
 .debug_line      0x0038cd        0x131 build/default/production/_ext/1464792115/HdwrTest.o
 .debug_line      0x0039fe         0xf6 build/default/production/_ext/1464792115/NVMDrivers.o
 .debug_line      0x003af4         0xc0 build/default/production/_ext/1464792115/OptoDrivers.o
 .debug_line      0x003bb4        0x25b build/default/production/_ext/1464792115/multiMotorDrivers.o
 .debug_line      0x003e0f        0x1aa build/default/production/_ext/1464792115/TempHumidPresDrivers.o
 .debug_line      0x003fb9         0xb9 build/default/production/_ext/1749136748/non_pwm_led.o
 .debug_line      0x004072         0xc8 build/default/production/_ext/1749136748/main.o
 .debug_line      0x00413a         0x7b build/default/production/_ext/1749136748/kernel13.o
 .debug_line      0x0041b5         0x86 build/default/production/_ext/1749136748/kernel14.o
 .debug_line      0x00423b        0x18c build/default/production/_ext/1749136748/SD_support.o
 .debug_line      0x0043c7         0x5b build/default/production/_ext/1749136748/kernel15.o
 .debug_line      0x004422         0xac build/default/production/_ext/1749136748/kernel16.o
 .debug_line      0x0044ce         0xb6 build/default/production/_ext/1749136748/kernel17.o
 .debug_line      0x004584         0xf7 build/default/production/_ext/1749136748/kernel18.o
 .debug_line      0x00467b         0x90 build/default/production/_ext/1749136748/kernel12.o
 .debug_line      0x00470b         0x50 build/default/production/_ext/1749136748/kernel19.o
 .debug_line      0x00475b         0xbf build/default/production/_ext/1161263815/usb_descriptors.o
 .debug_line      0x00481a        0x3e3 build/default/production/_ext/1161263815/usb_device.o
 .debug_line      0x004bfd        0x3bb build/default/production/_ext/1161263815/usb_function_msd.o
 .debug_line      0x004fb8        0x1ed build/default/production/_ext/1161263815/usb_function_cdc.o

.debug_frame      0x000000       0x3e8a
 *(.debug_frame)
 .debug_frame     0x000000        0x104 build/default/production/_ext/1639979382/button.o
 .debug_frame     0x000104        0x156 build/default/production/_ext/1639979382/camera.o
 .debug_frame     0x00025a         0xd8 build/default/production/_ext/1639979382/co2.o
 .debug_frame     0x000332         0x68 build/default/production/_ext/1639979382/datalog.o
 .debug_frame     0x00039a        0x2d6 build/default/production/_ext/1639979382/file.o
 .debug_frame     0x000670         0x84 build/default/production/_ext/1639979382/led.o
 .debug_frame     0x0006f4         0x30 build/default/production/_ext/1639979382/nesi.o
 .debug_frame     0x000724        0x19c build/default/production/_ext/1639979382/powerDriver.o
 .debug_frame     0x0008c0        0x110 build/default/production/_ext/1639979382/resistiveSensors.o
 .debug_frame     0x0009d0         0x4c build/default/production/_ext/1639979382/sdcard.o
 .debug_frame     0x000a1c         0xbc build/default/production/_ext/1639979382/system.o
 .debug_frame     0x000ad8        0x1f0 build/default/production/_ext/1639979382/usb.o
 .debug_frame     0x000cc8        0x3ec build/default/production/_ext/1639979382/dateTime.o
 .debug_frame     0x0010b4        0x162 build/default/production/_ext/1639979382/uart1.o
 .debug_frame     0x001216        0x162 build/default/production/_ext/1639979382/uart2.o
 .debug_frame     0x001378        0x162 build/default/production/_ext/1639979382/uart3.o
 .debug_frame     0x0014da        0x13a build/default/production/_ext/1639979382/camera2.o
 .debug_frame     0x001614        0x890 build/default/production/_ext/1161271966/FSIO.o
 .debug_frame     0x001ea4        0x218 build/default/production/_ext/1161271966/SD-SPI.o
 .debug_frame     0x0020bc        0x164 build/default/production/_ext/1464792115/Analog2digital.o
 .debug_frame     0x002220        0x344 build/default/production/_ext/1464792115/dateTime_RTC.o
 .debug_frame     0x002564         0x84 build/default/production/_ext/1464792115/Encoder.o
 .debug_frame     0x0025e8        0x19c build/default/production/_ext/1464792115/I2CDrivers.o
 .debug_frame     0x002784        0x5fc build/default/production/_ext/1464792115/PortBitDrivers.o
 .debug_frame     0x002d80         0x84 build/default/production/_ext/1464792115/RadiationSensorDriver.o
 .debug_frame     0x002e04         0xa0 build/default/production/_ext/1464792115/RedGreenBlueDrivers.o
 .debug_frame     0x002ea4         0x96 build/default/production/_ext/1464792115/SensorDirviers.o
 .debug_frame     0x002f3a         0x30 build/default/production/_ext/1464792115/HdwrTest.o
 .debug_frame     0x002f6a         0xbc build/default/production/_ext/1464792115/NVMDrivers.o
 .debug_frame     0x003026         0x30 build/default/production/_ext/1464792115/OptoDrivers.o
 .debug_frame     0x003056        0x1c0 build/default/production/_ext/1464792115/multiMotorDrivers.o
 .debug_frame     0x003216        0x1b2 build/default/production/_ext/1464792115/TempHumidPresDrivers.o
 .debug_frame     0x0033c8         0xbc build/default/production/_ext/1749136748/non_pwm_led.o
 .debug_frame     0x003484         0x3e build/default/production/_ext/1749136748/main.o
 .debug_frame     0x0034c2         0x30 build/default/production/_ext/1749136748/kernel13.o
 .debug_frame     0x0034f2         0x3e build/default/production/_ext/1749136748/kernel14.o
 .debug_frame     0x003530        0x1be build/default/production/_ext/1749136748/SD_support.o
 .debug_frame     0x0036ee         0x30 build/default/production/_ext/1749136748/kernel15.o
 .debug_frame     0x00371e         0x84 build/default/production/_ext/1749136748/kernel16.o
 .debug_frame     0x0037a2         0x30 build/default/production/_ext/1749136748/kernel17.o
 .debug_frame     0x0037d2         0xec build/default/production/_ext/1749136748/kernel18.o
 .debug_frame     0x0038be         0x30 build/default/production/_ext/1749136748/kernel12.o
 .debug_frame     0x0038ee         0x30 build/default/production/_ext/1749136748/kernel19.o
 .debug_frame     0x00391e        0x314 build/default/production/_ext/1161263815/usb_device.o
 .debug_frame     0x003c32        0x164 build/default/production/_ext/1161263815/usb_function_msd.o
 .debug_frame     0x003d96         0xf4 build/default/production/_ext/1161263815/usb_function_cdc.o

.debug_str        0x000000       0x223d
 *(.debug_str)
 .debug_str       0x000000         0x55 build/default/production/_ext/1639979382/button.o
 .debug_str       0x000055         0x4d build/default/production/_ext/1639979382/camera.o
 .debug_str       0x0000a2         0x3f build/default/production/_ext/1639979382/co2.o
 .debug_str       0x0000e1          0xb build/default/production/_ext/1639979382/datalog.o
 .debug_str       0x0000ec         0x4f build/default/production/_ext/1639979382/file.o
 .debug_str       0x00013b         0x36 build/default/production/_ext/1639979382/led.o
 .debug_str       0x000171         0x44 build/default/production/_ext/1639979382/nesi.o
 .debug_str       0x0001b5         0x48 build/default/production/_ext/1639979382/powerDriver.o
 .debug_str       0x0001fd         0x4b build/default/production/_ext/1639979382/resistiveSensors.o
 .debug_str       0x000248         0x48 build/default/production/_ext/1639979382/sdcard.o
 .debug_str       0x000290         0x6c build/default/production/_ext/1639979382/system.o
 .debug_str       0x0002fc         0x9a build/default/production/_ext/1639979382/usb.o
 .debug_str       0x000396        0x138 build/default/production/_ext/1639979382/dateTime.o
 .debug_str       0x0004ce         0x8b build/default/production/_ext/1639979382/uart1.o
 .debug_str       0x000559         0x83 build/default/production/_ext/1639979382/uart2.o
 .debug_str       0x0005dc         0x84 build/default/production/_ext/1639979382/uart3.o
 .debug_str       0x000660         0x4e build/default/production/_ext/1639979382/camera2.o
 .debug_str       0x0006ae        0x598 build/default/production/_ext/1161271966/FSIO.o
 .debug_str       0x000c46        0x13c build/default/production/_ext/1161271966/SD-SPI.o
 .debug_str       0x000d82         0x4b build/default/production/_ext/1464792115/Analog2digital.o
 .debug_str       0x000dcd        0x15a build/default/production/_ext/1464792115/dateTime_RTC.o
 .debug_str       0x000f27        0x13d build/default/production/_ext/1464792115/Encoder.o
 .debug_str       0x001064        0x255 build/default/production/_ext/1464792115/I2CDrivers.o
 .debug_str       0x0012b9        0x192 build/default/production/_ext/1464792115/PortBitDrivers.o
 .debug_str       0x00144b         0xc5 build/default/production/_ext/1464792115/RadiationSensorDriver.o
 .debug_str       0x001510        0x111 build/default/production/_ext/1464792115/RedGreenBlueDrivers.o
 .debug_str       0x001621        0x137 build/default/production/_ext/1464792115/SensorDirviers.o
 .debug_str       0x001758        0x19d build/default/production/_ext/1464792115/HdwrTest.o
 .debug_str       0x0018f5          0x9 build/default/production/_ext/1464792115/NVMDrivers.o
 .debug_str       0x0018fe         0x6e build/default/production/_ext/1464792115/OptoDrivers.o
 .debug_str       0x00196c        0x1c3 build/default/production/_ext/1464792115/multiMotorDrivers.o
 .debug_str       0x001b2f        0x121 build/default/production/_ext/1464792115/TempHumidPresDrivers.o
 .debug_str       0x001c50         0x27 build/default/production/_ext/1749136748/non_pwm_led.o
 .debug_str       0x001c77         0x16 build/default/production/_ext/1749136748/main.o
 .debug_str       0x001c8d         0x17 build/default/production/_ext/1749136748/kernel14.o
 .debug_str       0x001ca4         0x5c build/default/production/_ext/1749136748/SD_support.o
 .debug_str       0x001d00          0xd build/default/production/_ext/1749136748/kernel15.o
 .debug_str       0x001d0d         0x13 build/default/production/_ext/1749136748/kernel16.o
 .debug_str       0x001d20          0xb build/default/production/_ext/1749136748/kernel17.o
 .debug_str       0x001d2b         0x41 build/default/production/_ext/1749136748/kernel18.o
 .debug_str       0x001d6c          0x9 build/default/production/_ext/1749136748/kernel12.o
 .debug_str       0x001d75         0x2a build/default/production/_ext/1161263815/usb_descriptors.o
 .debug_str       0x001d9f        0x286 build/default/production/_ext/1161263815/usb_device.o
 .debug_str       0x002025        0x13a build/default/production/_ext/1161263815/usb_function_msd.o
 .debug_str       0x00215f         0xde build/default/production/_ext/1161263815/usb_function_cdc.o

.debug_loc
 *(.debug_loc)

.debug_macinfo
 *(.debug_macinfo)

.debug_pubnames
                  0x000000       0x35c6
 *(.debug_pubnames)
 .debug_pubnames
                  0x000000         0x3f build/default/production/_ext/1639979382/button.o
 .debug_pubnames
                  0x00003f         0x4a build/default/production/_ext/1639979382/camera.o
 .debug_pubnames
                  0x000089         0x1a build/default/production/_ext/1639979382/co2.o
 .debug_pubnames
                  0x0000a3         0x1e build/default/production/_ext/1639979382/datalog.o
 .debug_pubnames
                  0x0000c1         0x4f build/default/production/_ext/1639979382/file.o
 .debug_pubnames
                  0x000110         0x24 build/default/production/_ext/1639979382/led.o
 .debug_pubnames
                  0x000134         0x1b build/default/production/_ext/1639979382/nesi.o
 .debug_pubnames
                  0x00014f         0x34 build/default/production/_ext/1639979382/powerDriver.o
 .debug_pubnames
                  0x000183         0x27 build/default/production/_ext/1639979382/resistiveSensors.o
 .debug_pubnames
                  0x0001aa         0x1d build/default/production/_ext/1639979382/sdcard.o
 .debug_pubnames
                  0x0001c7         0x61 build/default/production/_ext/1639979382/system.o
 .debug_pubnames
                  0x000228         0xfe build/default/production/_ext/1639979382/usb.o
 .debug_pubnames
                  0x000326         0xce build/default/production/_ext/1639979382/dateTime.o
 .debug_pubnames
                  0x0003f4         0x42 build/default/production/_ext/1639979382/uart1.o
 .debug_pubnames
                  0x000436         0x42 build/default/production/_ext/1639979382/uart2.o
 .debug_pubnames
                  0x000478         0x42 build/default/production/_ext/1639979382/uart3.o
 .debug_pubnames
                  0x0004ba         0x3c build/default/production/_ext/1639979382/camera2.o
 .debug_pubnames
                  0x0004f6        0x784 build/default/production/_ext/1161271966/FSIO.o
 .debug_pubnames
                  0x000c7a        0x1fc build/default/production/_ext/1161271966/SD-SPI.o
 .debug_pubnames
                  0x000e76         0x67 build/default/production/_ext/1464792115/Analog2digital.o
 .debug_pubnames
                  0x000edd         0x61 build/default/production/_ext/1464792115/dateTime_RTC.o
 .debug_pubnames
                  0x000f3e        0x1ff build/default/production/_ext/1464792115/Encoder.o
 .debug_pubnames
                  0x00113d        0x421 build/default/production/_ext/1464792115/I2CDrivers.o
 .debug_pubnames
                  0x00155e        0x5b5 build/default/production/_ext/1464792115/PortBitDrivers.o
 .debug_pubnames
                  0x001b13         0x4e build/default/production/_ext/1464792115/RadiationSensorDriver.o
 .debug_pubnames
                  0x001b61        0x1cf build/default/production/_ext/1464792115/RedGreenBlueDrivers.o
 .debug_pubnames
                  0x001d30        0x381 build/default/production/_ext/1464792115/SensorDirviers.o
 .debug_pubnames
                  0x0020b1        0x1fe build/default/production/_ext/1464792115/HdwrTest.o
 .debug_pubnames
                  0x0022af         0xee build/default/production/_ext/1464792115/NVMDrivers.o
 .debug_pubnames
                  0x00239d         0xfa build/default/production/_ext/1464792115/OptoDrivers.o
 .debug_pubnames
                  0x002497        0x2d2 build/default/production/_ext/1464792115/multiMotorDrivers.o
 .debug_pubnames
                  0x002769        0x461 build/default/production/_ext/1464792115/TempHumidPresDrivers.o
 .debug_pubnames
                  0x002bca         0x24 build/default/production/_ext/1749136748/non_pwm_led.o
 .debug_pubnames
                  0x002bee         0x26 build/default/production/_ext/1749136748/main.o
 .debug_pubnames
                  0x002c14         0x1f build/default/production/_ext/1749136748/kernel13.o
 .debug_pubnames
                  0x002c33         0x1f build/default/production/_ext/1749136748/kernel14.o
 .debug_pubnames
                  0x002c52         0x69 build/default/production/_ext/1749136748/SD_support.o
 .debug_pubnames
                  0x002cbb         0x1f build/default/production/_ext/1749136748/kernel15.o
 .debug_pubnames
                  0x002cda         0x3d build/default/production/_ext/1749136748/kernel16.o
 .debug_pubnames
                  0x002d17         0x1f build/default/production/_ext/1749136748/kernel17.o
 .debug_pubnames
                  0x002d36         0x8a build/default/production/_ext/1749136748/kernel18.o
 .debug_pubnames
                  0x002dc0         0x1f build/default/production/_ext/1749136748/kernel12.o
 .debug_pubnames
                  0x002ddf         0x1f build/default/production/_ext/1749136748/kernel19.o
 .debug_pubnames
                  0x002dfe         0x7d build/default/production/_ext/1161263815/usb_descriptors.o
 .debug_pubnames
                  0x002e7b        0x361 build/default/production/_ext/1161263815/usb_device.o
 .debug_pubnames
                  0x0031dc        0x238 build/default/production/_ext/1161263815/usb_function_msd.o
 .debug_pubnames
                  0x003414        0x1b2 build/default/production/_ext/1161263815/usb_function_cdc.o

.debug_ranges
 *(.debug_ranges)

.debug_aranges    0x000000        0x450
 *(.debug_aranges)
 .debug_aranges
                  0x000000         0x18 build/default/production/_ext/1639979382/button.o
 .debug_aranges
                  0x000018         0x18 build/default/production/_ext/1639979382/camera.o
 .debug_aranges
                  0x000030         0x18 build/default/production/_ext/1639979382/co2.o
 .debug_aranges
                  0x000048         0x18 build/default/production/_ext/1639979382/datalog.o
 .debug_aranges
                  0x000060         0x18 build/default/production/_ext/1639979382/file.o
 .debug_aranges
                  0x000078         0x18 build/default/production/_ext/1639979382/led.o
 .debug_aranges
                  0x000090         0x18 build/default/production/_ext/1639979382/nesi.o
 .debug_aranges
                  0x0000a8         0x18 build/default/production/_ext/1639979382/powerDriver.o
 .debug_aranges
                  0x0000c0         0x18 build/default/production/_ext/1639979382/resistiveSensors.o
 .debug_aranges
                  0x0000d8         0x18 build/default/production/_ext/1639979382/sdcard.o
 .debug_aranges
                  0x0000f0         0x18 build/default/production/_ext/1639979382/system.o
 .debug_aranges
                  0x000108         0x18 build/default/production/_ext/1639979382/usb.o
 .debug_aranges
                  0x000120         0x18 build/default/production/_ext/1639979382/dateTime.o
 .debug_aranges
                  0x000138         0x18 build/default/production/_ext/1639979382/uart1.o
 .debug_aranges
                  0x000150         0x18 build/default/production/_ext/1639979382/uart2.o
 .debug_aranges
                  0x000168         0x18 build/default/production/_ext/1639979382/uart3.o
 .debug_aranges
                  0x000180         0x18 build/default/production/_ext/1639979382/camera2.o
 .debug_aranges
                  0x000198         0x18 build/default/production/_ext/1161271966/FSIO.o
 .debug_aranges
                  0x0001b0         0x18 build/default/production/_ext/1161271966/SD-SPI.o
 .debug_aranges
                  0x0001c8         0x18 build/default/production/_ext/1464792115/Analog2digital.o
 .debug_aranges
                  0x0001e0         0x18 build/default/production/_ext/1464792115/dateTime_RTC.o
 .debug_aranges
                  0x0001f8         0x18 build/default/production/_ext/1464792115/Encoder.o
 .debug_aranges
                  0x000210         0x18 build/default/production/_ext/1464792115/I2CDrivers.o
 .debug_aranges
                  0x000228         0x18 build/default/production/_ext/1464792115/PortBitDrivers.o
 .debug_aranges
                  0x000240         0x18 build/default/production/_ext/1464792115/RadiationSensorDriver.o
 .debug_aranges
                  0x000258         0x18 build/default/production/_ext/1464792115/RedGreenBlueDrivers.o
 .debug_aranges
                  0x000270         0x18 build/default/production/_ext/1464792115/SensorDirviers.o
 .debug_aranges
                  0x000288         0x18 build/default/production/_ext/1464792115/HdwrTest.o
 .debug_aranges
                  0x0002a0         0x18 build/default/production/_ext/1464792115/NVMDrivers.o
 .debug_aranges
                  0x0002b8         0x18 build/default/production/_ext/1464792115/OptoDrivers.o
 .debug_aranges
                  0x0002d0         0x18 build/default/production/_ext/1464792115/multiMotorDrivers.o
 .debug_aranges
                  0x0002e8         0x18 build/default/production/_ext/1464792115/TempHumidPresDrivers.o
 .debug_aranges
                  0x000300         0x18 build/default/production/_ext/1749136748/non_pwm_led.o
 .debug_aranges
                  0x000318         0x18 build/default/production/_ext/1749136748/main.o
 .debug_aranges
                  0x000330         0x18 build/default/production/_ext/1749136748/kernel13.o
 .debug_aranges
                  0x000348         0x18 build/default/production/_ext/1749136748/kernel14.o
 .debug_aranges
                  0x000360         0x18 build/default/production/_ext/1749136748/SD_support.o
 .debug_aranges
                  0x000378         0x18 build/default/production/_ext/1749136748/kernel15.o
 .debug_aranges
                  0x000390         0x18 build/default/production/_ext/1749136748/kernel16.o
 .debug_aranges
                  0x0003a8         0x18 build/default/production/_ext/1749136748/kernel17.o
 .debug_aranges
                  0x0003c0         0x18 build/default/production/_ext/1749136748/kernel18.o
 .debug_aranges
                  0x0003d8         0x18 build/default/production/_ext/1749136748/kernel12.o
 .debug_aranges
                  0x0003f0         0x18 build/default/production/_ext/1749136748/kernel19.o
 .debug_aranges
                  0x000408         0x18 build/default/production/_ext/1161263815/usb_device.o
 .debug_aranges
                  0x000420         0x18 build/default/production/_ext/1161263815/usb_function_msd.o
 .debug_aranges
                  0x000438         0x18 build/default/production/_ext/1161263815/usb_function_cdc.o

.ivt              0x000004         0xfc
                  0x000004          0x4 LONG 0x4ec DEFINED (__ReservedTrap0)?ABSOLUTE (__ReservedTrap0):ABSOLUTE (__DefaultInterrupt)
                  0x000006          0x4 LONG 0x4ec DEFINED (__OscillatorFail)?ABSOLUTE (__OscillatorFail):ABSOLUTE (__DefaultInterrupt)
                  0x000008          0x4 LONG 0x4ec DEFINED (__AddressError)?ABSOLUTE (__AddressError):ABSOLUTE (__DefaultInterrupt)
                  0x00000a          0x4 LONG 0x4ec DEFINED (__StackError)?ABSOLUTE (__StackError):ABSOLUTE (__DefaultInterrupt)
                  0x00000c          0x4 LONG 0x4ec DEFINED (__MathError)?ABSOLUTE (__MathError):ABSOLUTE (__DefaultInterrupt)
                  0x00000e          0x4 LONG 0x4ec DEFINED (__ReservedTrap5)?ABSOLUTE (__ReservedTrap5):ABSOLUTE (__DefaultInterrupt)
                  0x000010          0x4 LONG 0x4ec DEFINED (__ReservedTrap6)?ABSOLUTE (__ReservedTrap6):ABSOLUTE (__DefaultInterrupt)
                  0x000012          0x4 LONG 0x4ec DEFINED (__ReservedTrap7)?ABSOLUTE (__ReservedTrap7):ABSOLUTE (__DefaultInterrupt)
                  0x000014          0x4 LONG 0x4ec DEFINED (__INT0Interrupt)?ABSOLUTE (__INT0Interrupt):ABSOLUTE (__DefaultInterrupt)
                  0x000016          0x4 LONG 0x4ec DEFINED (__IC1Interrupt)?ABSOLUTE (__IC1Interrupt):ABSOLUTE (__DefaultInterrupt)
                  0x000018          0x4 LONG 0x4ec DEFINED (__OC1Interrupt)?ABSOLUTE (__OC1Interrupt):ABSOLUTE (__DefaultInterrupt)
                  0x00001a          0x4 LONG 0x4ec DEFINED (__T1Interrupt)?ABSOLUTE (__T1Interrupt):ABSOLUTE (__DefaultInterrupt)
                  0x00001c          0x4 LONG 0x4ec DEFINED (__Interrupt4)?ABSOLUTE (__Interrupt4):ABSOLUTE (__DefaultInterrupt)
                  0x00001e          0x4 LONG 0x4ec DEFINED (__IC2Interrupt)?ABSOLUTE (__IC2Interrupt):ABSOLUTE (__DefaultInterrupt)
                  0x000020          0x4 LONG 0x4ec DEFINED (__OC2Interrupt)?ABSOLUTE (__OC2Interrupt):ABSOLUTE (__DefaultInterrupt)
                  0x000022          0x4 LONG 0x1628a DEFINED (__T2Interrupt)?ABSOLUTE (__T2Interrupt):ABSOLUTE (__DefaultInterrupt)
                  0x000024          0x4 LONG 0x4ec DEFINED (__T3Interrupt)?ABSOLUTE (__T3Interrupt):ABSOLUTE (__DefaultInterrupt)
                  0x000026          0x4 LONG 0x4ec DEFINED (__SPI1ErrInterrupt)?ABSOLUTE (__SPI1ErrInterrupt):ABSOLUTE (__DefaultInterrupt)
                  0x000028          0x4 LONG 0x4ec DEFINED (__SPI1Interrupt)?ABSOLUTE (__SPI1Interrupt):ABSOLUTE (__DefaultInterrupt)
                  0x00002a          0x4 LONG 0x17fa4 DEFINED (__U1RXInterrupt)?ABSOLUTE (__U1RXInterrupt):ABSOLUTE (__DefaultInterrupt)
                  0x00002c          0x4 LONG 0x17fe6 DEFINED (__U1TXInterrupt)?ABSOLUTE (__U1TXInterrupt):ABSOLUTE (__DefaultInterrupt)
                  0x00002e          0x4 LONG 0x4ec DEFINED (__ADC1Interrupt)?ABSOLUTE (__ADC1Interrupt):ABSOLUTE (__DefaultInterrupt)
                  0x000030          0x4 LONG 0x4ec DEFINED (__Interrupt14)?ABSOLUTE (__Interrupt14):ABSOLUTE (__DefaultInterrupt)
                  0x000032          0x4 LONG 0x4ec DEFINED (__Interrupt15)?ABSOLUTE (__Interrupt15):ABSOLUTE (__DefaultInterrupt)
                  0x000034          0x4 LONG 0x4ec DEFINED (__SI2C1Interrupt)?ABSOLUTE (__SI2C1Interrupt):ABSOLUTE (__DefaultInterrupt)
                  0x000036          0x4 LONG 0x4ec DEFINED (__MI2C1Interrupt)?ABSOLUTE (__MI2C1Interrupt):ABSOLUTE (__DefaultInterrupt)
                  0x000038          0x4 LONG 0x4ec DEFINED (__CompInterrupt)?ABSOLUTE (__CompInterrupt):ABSOLUTE (__DefaultInterrupt)
                  0x00003a          0x4 LONG 0x19e1a DEFINED (__CNInterrupt)?ABSOLUTE (__CNInterrupt):ABSOLUTE (__DefaultInterrupt)
                  0x00003c          0x4 LONG 0x4ec DEFINED (__INT1Interrupt)?ABSOLUTE (__INT1Interrupt):ABSOLUTE (__DefaultInterrupt)
                  0x00003e          0x4 LONG 0x4ec DEFINED (__Interrupt21)?ABSOLUTE (__Interrupt21):ABSOLUTE (__DefaultInterrupt)
                  0x000040          0x4 LONG 0x4ec DEFINED (__IC7Interrupt)?ABSOLUTE (__IC7Interrupt):ABSOLUTE (__DefaultInterrupt)
                  0x000042          0x4 LONG 0x4ec DEFINED (__IC8Interrupt)?ABSOLUTE (__IC8Interrupt):ABSOLUTE (__DefaultInterrupt)
                  0x000044          0x4 LONG 0x4ec DEFINED (__Interrupt24)?ABSOLUTE (__Interrupt24):ABSOLUTE (__DefaultInterrupt)
                  0x000046          0x4 LONG 0x4ec DEFINED (__OC3Interrupt)?ABSOLUTE (__OC3Interrupt):ABSOLUTE (__DefaultInterrupt)
                  0x000048          0x4 LONG 0x4ec DEFINED (__OC4Interrupt)?ABSOLUTE (__OC4Interrupt):ABSOLUTE (__DefaultInterrupt)
                  0x00004a          0x4 LONG 0x10d8a DEFINED (__T4Interrupt)?ABSOLUTE (__T4Interrupt):ABSOLUTE (__DefaultInterrupt)
                  0x00004c          0x4 LONG 0x19eae DEFINED (__T5Interrupt)?ABSOLUTE (__T5Interrupt):ABSOLUTE (__DefaultInterrupt)
                  0x00004e          0x4 LONG 0x4ec DEFINED (__INT2Interrupt)?ABSOLUTE (__INT2Interrupt):ABSOLUTE (__DefaultInterrupt)
                  0x000050          0x4 LONG 0x1854e DEFINED (__U2RXInterrupt)?ABSOLUTE (__U2RXInterrupt):ABSOLUTE (__DefaultInterrupt)
                  0x000052          0x4 LONG 0x18590 DEFINED (__U2TXInterrupt)?ABSOLUTE (__U2TXInterrupt):ABSOLUTE (__DefaultInterrupt)
                  0x000054          0x4 LONG 0x4ec DEFINED (__SPI2ErrInterrupt)?ABSOLUTE (__SPI2ErrInterrupt):ABSOLUTE (__DefaultInterrupt)
                  0x000056          0x4 LONG 0x4ec DEFINED (__SPI2Interrupt)?ABSOLUTE (__SPI2Interrupt):ABSOLUTE (__DefaultInterrupt)
                  0x000058          0x4 LONG 0x4ec DEFINED (__Interrupt34)?ABSOLUTE (__Interrupt34):ABSOLUTE (__DefaultInterrupt)
                  0x00005a          0x4 LONG 0x4ec DEFINED (__Interrupt35)?ABSOLUTE (__Interrupt35):ABSOLUTE (__DefaultInterrupt)
                  0x00005c          0x4 LONG 0x4ec DEFINED (__Interrupt36)?ABSOLUTE (__Interrupt36):ABSOLUTE (__DefaultInterrupt)
                  0x00005e          0x4 LONG 0x4ec DEFINED (__IC3Interrupt)?ABSOLUTE (__IC3Interrupt):ABSOLUTE (__DefaultInterrupt)
                  0x000060          0x4 LONG 0x4ec DEFINED (__IC4Interrupt)?ABSOLUTE (__IC4Interrupt):ABSOLUTE (__DefaultInterrupt)
                  0x000062          0x4 LONG 0x4ec DEFINED (__IC5Interrupt)?ABSOLUTE (__IC5Interrupt):ABSOLUTE (__DefaultInterrupt)
                  0x000064          0x4 LONG 0x4ec DEFINED (__IC6Interrupt)?ABSOLUTE (__IC6Interrupt):ABSOLUTE (__DefaultInterrupt)
                  0x000066          0x4 LONG 0x4ec DEFINED (__OC5Interrupt)?ABSOLUTE (__OC5Interrupt):ABSOLUTE (__DefaultInterrupt)
                  0x000068          0x4 LONG 0x4ec DEFINED (__OC6Interrupt)?ABSOLUTE (__OC6Interrupt):ABSOLUTE (__DefaultInterrupt)
                  0x00006a          0x4 LONG 0x4ec DEFINED (__OC7Interrupt)?ABSOLUTE (__OC7Interrupt):ABSOLUTE (__DefaultInterrupt)
                  0x00006c          0x4 LONG 0x4ec DEFINED (__OC8Interrupt)?ABSOLUTE (__OC8Interrupt):ABSOLUTE (__DefaultInterrupt)
                  0x00006e          0x4 LONG 0x4ec DEFINED (__PMPInterrupt)?ABSOLUTE (__PMPInterrupt):ABSOLUTE (__DefaultInterrupt)
                  0x000070          0x4 LONG 0x4ec DEFINED (__Interrupt46)?ABSOLUTE (__Interrupt46):ABSOLUTE (__DefaultInterrupt)
                  0x000072          0x4 LONG 0x4ec DEFINED (__Interrupt47)?ABSOLUTE (__Interrupt47):ABSOLUTE (__DefaultInterrupt)
                  0x000074          0x4 LONG 0x4ec DEFINED (__Interrupt48)?ABSOLUTE (__Interrupt48):ABSOLUTE (__DefaultInterrupt)
                  0x000076          0x4 LONG 0x4ec DEFINED (__SI2C2Interrupt)?ABSOLUTE (__SI2C2Interrupt):ABSOLUTE (__DefaultInterrupt)
                  0x000078          0x4 LONG 0x4ec DEFINED (__MI2C2Interrupt)?ABSOLUTE (__MI2C2Interrupt):ABSOLUTE (__DefaultInterrupt)
                  0x00007a          0x4 LONG 0x4ec DEFINED (__Interrupt51)?ABSOLUTE (__Interrupt51):ABSOLUTE (__DefaultInterrupt)
                  0x00007c          0x4 LONG 0x4ec DEFINED (__Interrupt52)?ABSOLUTE (__Interrupt52):ABSOLUTE (__DefaultInterrupt)
                  0x00007e          0x4 LONG 0x4ec DEFINED (__INT3Interrupt)?ABSOLUTE (__INT3Interrupt):ABSOLUTE (__DefaultInterrupt)
                  0x000080          0x4 LONG 0x4ec DEFINED (__INT4Interrupt)?ABSOLUTE (__INT4Interrupt):ABSOLUTE (__DefaultInterrupt)
                  0x000082          0x4 LONG 0x4ec DEFINED (__Interrupt55)?ABSOLUTE (__Interrupt55):ABSOLUTE (__DefaultInterrupt)
                  0x000084          0x4 LONG 0x4ec DEFINED (__Interrupt56)?ABSOLUTE (__Interrupt56):ABSOLUTE (__DefaultInterrupt)
                  0x000086          0x4 LONG 0x4ec DEFINED (__Interrupt57)?ABSOLUTE (__Interrupt57):ABSOLUTE (__DefaultInterrupt)
                  0x000088          0x4 LONG 0x4ec DEFINED (__Interrupt58)?ABSOLUTE (__Interrupt58):ABSOLUTE (__DefaultInterrupt)
                  0x00008a          0x4 LONG 0x4ec DEFINED (__Interrupt59)?ABSOLUTE (__Interrupt59):ABSOLUTE (__DefaultInterrupt)
                  0x00008c          0x4 LONG 0x4ec DEFINED (__Interrupt60)?ABSOLUTE (__Interrupt60):ABSOLUTE (__DefaultInterrupt)
                  0x00008e          0x4 LONG 0x4ec DEFINED (__Interrupt61)?ABSOLUTE (__Interrupt61):ABSOLUTE (__DefaultInterrupt)
                  0x000090          0x4 LONG 0x10dbc DEFINED (__RTCCInterrupt)?ABSOLUTE (__RTCCInterrupt):ABSOLUTE (__DefaultInterrupt)
                  0x000092          0x4 LONG 0x4ec DEFINED (__Interrupt63)?ABSOLUTE (__Interrupt63):ABSOLUTE (__DefaultInterrupt)
                  0x000094          0x4 LONG 0x4ec DEFINED (__Interrupt64)?ABSOLUTE (__Interrupt64):ABSOLUTE (__DefaultInterrupt)
                  0x000096          0x4 LONG 0x4ec DEFINED (__U1ErrInterrupt)?ABSOLUTE (__U1ErrInterrupt):ABSOLUTE (__DefaultInterrupt)
                  0x000098          0x4 LONG 0x4ec DEFINED (__U2ErrInterrupt)?ABSOLUTE (__U2ErrInterrupt):ABSOLUTE (__DefaultInterrupt)
                  0x00009a          0x4 LONG 0x4ec DEFINED (__CRCInterrupt)?ABSOLUTE (__CRCInterrupt):ABSOLUTE (__DefaultInterrupt)
                  0x00009c          0x4 LONG 0x4ec DEFINED (__Interrupt68)?ABSOLUTE (__Interrupt68):ABSOLUTE (__DefaultInterrupt)
                  0x00009e          0x4 LONG 0x4ec DEFINED (__Interrupt69)?ABSOLUTE (__Interrupt69):ABSOLUTE (__DefaultInterrupt)
                  0x0000a0          0x4 LONG 0x4ec DEFINED (__Interrupt70)?ABSOLUTE (__Interrupt70):ABSOLUTE (__DefaultInterrupt)
                  0x0000a2          0x4 LONG 0x4ec DEFINED (__Interrupt71)?ABSOLUTE (__Interrupt71):ABSOLUTE (__DefaultInterrupt)
                  0x0000a4          0x4 LONG 0x4ec DEFINED (__LVDInterrupt)?ABSOLUTE (__LVDInterrupt):ABSOLUTE (__DefaultInterrupt)
                  0x0000a6          0x4 LONG 0x4ec DEFINED (__Interrupt73)?ABSOLUTE (__Interrupt73):ABSOLUTE (__DefaultInterrupt)
                  0x0000a8          0x4 LONG 0x4ec DEFINED (__Interrupt74)?ABSOLUTE (__Interrupt74):ABSOLUTE (__DefaultInterrupt)
                  0x0000aa          0x4 LONG 0x4ec DEFINED (__Interrupt75)?ABSOLUTE (__Interrupt75):ABSOLUTE (__DefaultInterrupt)
                  0x0000ac          0x4 LONG 0x4ec DEFINED (__Interrupt76)?ABSOLUTE (__Interrupt76):ABSOLUTE (__DefaultInterrupt)
                  0x0000ae          0x4 LONG 0x4ec DEFINED (__CTMUInterrupt)?ABSOLUTE (__CTMUInterrupt):ABSOLUTE (__DefaultInterrupt)
                  0x0000b0          0x4 LONG 0x4ec DEFINED (__Interrupt78)?ABSOLUTE (__Interrupt78):ABSOLUTE (__DefaultInterrupt)
                  0x0000b2          0x4 LONG 0x4ec DEFINED (__Interrupt79)?ABSOLUTE (__Interrupt79):ABSOLUTE (__DefaultInterrupt)
                  0x0000b4          0x4 LONG 0x4ec DEFINED (__Interrupt80)?ABSOLUTE (__Interrupt80):ABSOLUTE (__DefaultInterrupt)
                  0x0000b6          0x4 LONG 0x4ec DEFINED (__U3ErrInterrupt)?ABSOLUTE (__U3ErrInterrupt):ABSOLUTE (__DefaultInterrupt)
                  0x0000b8          0x4 LONG 0x1827a DEFINED (__U3RXInterrupt)?ABSOLUTE (__U3RXInterrupt):ABSOLUTE (__DefaultInterrupt)
                  0x0000ba          0x4 LONG 0x182bc DEFINED (__U3TXInterrupt)?ABSOLUTE (__U3TXInterrupt):ABSOLUTE (__DefaultInterrupt)
                  0x0000bc          0x4 LONG 0x4ec DEFINED (__SI2C3Interrupt)?ABSOLUTE (__SI2C3Interrupt):ABSOLUTE (__DefaultInterrupt)
                  0x0000be          0x4 LONG 0x4ec DEFINED (__MI2C3Interrupt)?ABSOLUTE (__MI2C3Interrupt):ABSOLUTE (__DefaultInterrupt)
                  0x0000c0          0x4 LONG 0x125fa DEFINED (__USB1Interrupt)?ABSOLUTE (__USB1Interrupt):ABSOLUTE (__DefaultInterrupt)
                  0x0000c2          0x4 LONG 0x4ec DEFINED (__U4ErrInterrupt)?ABSOLUTE (__U4ErrInterrupt):ABSOLUTE (__DefaultInterrupt)
                  0x0000c4          0x4 LONG 0x4ec DEFINED (__U4RXInterrupt)?ABSOLUTE (__U4RXInterrupt):ABSOLUTE (__DefaultInterrupt)
                  0x0000c6          0x4 LONG 0x4ec DEFINED (__U4TXInterrupt)?ABSOLUTE (__U4TXInterrupt):ABSOLUTE (__DefaultInterrupt)
                  0x0000c8          0x4 LONG 0x4ec DEFINED (__SPI3ErrInterrupt)?ABSOLUTE (__SPI3ErrInterrupt):ABSOLUTE (__DefaultInterrupt)
                  0x0000ca          0x4 LONG 0x4ec DEFINED (__SPI3Interrupt)?ABSOLUTE (__SPI3Interrupt):ABSOLUTE (__DefaultInterrupt)
                  0x0000cc          0x4 LONG 0x4ec DEFINED (__OC9Interrupt)?ABSOLUTE (__OC9Interrupt):ABSOLUTE (__DefaultInterrupt)
                  0x0000ce          0x4 LONG 0x4ec DEFINED (__IC9Interrupt)?ABSOLUTE (__IC9Interrupt):ABSOLUTE (__DefaultInterrupt)
                  0x0000d0          0x4 LONG 0x4ec DEFINED (__Interrupt94)?ABSOLUTE (__Interrupt94):ABSOLUTE (__DefaultInterrupt)
                  0x0000d2          0x4 LONG 0x4ec DEFINED (__Interrupt95)?ABSOLUTE (__Interrupt95):ABSOLUTE (__DefaultInterrupt)
                  0x0000d4          0x4 LONG 0x4ec DEFINED (__Interrupt96)?ABSOLUTE (__Interrupt96):ABSOLUTE (__DefaultInterrupt)
                  0x0000d6          0x4 LONG 0x4ec DEFINED (__Interrupt97)?ABSOLUTE (__Interrupt97):ABSOLUTE (__DefaultInterrupt)
                  0x0000d8          0x4 LONG 0x4ec DEFINED (__Interrupt98)?ABSOLUTE (__Interrupt98):ABSOLUTE (__DefaultInterrupt)
                  0x0000da          0x4 LONG 0x4ec DEFINED (__Interrupt99)?ABSOLUTE (__Interrupt99):ABSOLUTE (__DefaultInterrupt)
                  0x0000dc          0x4 LONG 0x4ec DEFINED (__Interrupt100)?ABSOLUTE (__Interrupt100):ABSOLUTE (__DefaultInterrupt)
                  0x0000de          0x4 LONG 0x4ec DEFINED (__Interrupt101)?ABSOLUTE (__Interrupt101):ABSOLUTE (__DefaultInterrupt)
                  0x0000e0          0x4 LONG 0x4ec DEFINED (__Interrupt102)?ABSOLUTE (__Interrupt102):ABSOLUTE (__DefaultInterrupt)
                  0x0000e2          0x4 LONG 0x4ec DEFINED (__Interrupt103)?ABSOLUTE (__Interrupt103):ABSOLUTE (__DefaultInterrupt)
                  0x0000e4          0x4 LONG 0x4ec DEFINED (__Interrupt104)?ABSOLUTE (__Interrupt104):ABSOLUTE (__DefaultInterrupt)
                  0x0000e6          0x4 LONG 0x4ec DEFINED (__Interrupt105)?ABSOLUTE (__Interrupt105):ABSOLUTE (__DefaultInterrupt)
                  0x0000e8          0x4 LONG 0x4ec DEFINED (__Interrupt106)?ABSOLUTE (__Interrupt106):ABSOLUTE (__DefaultInterrupt)
                  0x0000ea          0x4 LONG 0x4ec DEFINED (__Interrupt107)?ABSOLUTE (__Interrupt107):ABSOLUTE (__DefaultInterrupt)
                  0x0000ec          0x4 LONG 0x4ec DEFINED (__Interrupt108)?ABSOLUTE (__Interrupt108):ABSOLUTE (__DefaultInterrupt)
                  0x0000ee          0x4 LONG 0x4ec DEFINED (__Interrupt109)?ABSOLUTE (__Interrupt109):ABSOLUTE (__DefaultInterrupt)
                  0x0000f0          0x4 LONG 0x4ec DEFINED (__Interrupt110)?ABSOLUTE (__Interrupt110):ABSOLUTE (__DefaultInterrupt)
                  0x0000f2          0x4 LONG 0x4ec DEFINED (__Interrupt111)?ABSOLUTE (__Interrupt111):ABSOLUTE (__DefaultInterrupt)
                  0x0000f4          0x4 LONG 0x4ec DEFINED (__Interrupt112)?ABSOLUTE (__Interrupt112):ABSOLUTE (__DefaultInterrupt)
                  0x0000f6          0x4 LONG 0x4ec DEFINED (__Interrupt113)?ABSOLUTE (__Interrupt113):ABSOLUTE (__DefaultInterrupt)
                  0x0000f8          0x4 LONG 0x4ec DEFINED (__Interrupt114)?ABSOLUTE (__Interrupt114):ABSOLUTE (__DefaultInterrupt)
                  0x0000fa          0x4 LONG 0x4ec DEFINED (__Interrupt115)?ABSOLUTE (__Interrupt115):ABSOLUTE (__DefaultInterrupt)
                  0x0000fc          0x4 LONG 0x4ec DEFINED (__Interrupt116)?ABSOLUTE (__Interrupt116):ABSOLUTE (__DefaultInterrupt)
                  0x0000fe          0x4 LONG 0x4ec DEFINED (__Interrupt117)?ABSOLUTE (__Interrupt117):ABSOLUTE (__DefaultInterrupt)

.aivt             0x000104         0xfc
                  0x000104          0x4 LONG 0x4ec DEFINED (__AltReservedTrap0)?ABSOLUTE (__AltReservedTrap0):DEFINED (__ReservedTrap0)?ABSOLUTE (__ReservedTrap0):ABSOLUTE (__DefaultInterrupt)
                  0x000106          0x4 LONG 0x4ec DEFINED (__AltOscillatorFail)?ABSOLUTE (__AltOscillatorFail):DEFINED (__OscillatorFail)?ABSOLUTE (__OscillatorFail):ABSOLUTE (__DefaultInterrupt)
                  0x000108          0x4 LONG 0x4ec DEFINED (__AltAddressError)?ABSOLUTE (__AltAddressError):DEFINED (__AddressError)?ABSOLUTE (__AddressError):ABSOLUTE (__DefaultInterrupt)
                  0x00010a          0x4 LONG 0x4ec DEFINED (__AltStackError)?ABSOLUTE (__AltStackError):DEFINED (__StackError)?ABSOLUTE (__StackError):ABSOLUTE (__DefaultInterrupt)
                  0x00010c          0x4 LONG 0x4ec DEFINED (__AltMathError)?ABSOLUTE (__AltMathError):DEFINED (__MathError)?ABSOLUTE (__MathError):ABSOLUTE (__DefaultInterrupt)
                  0x00010e          0x4 LONG 0x4ec DEFINED (__AltReservedTrap5)?ABSOLUTE (__AltReservedTrap5):DEFINED (__ReservedTrap5)?ABSOLUTE (__ReservedTrap5):ABSOLUTE (__DefaultInterrupt)
                  0x000110          0x4 LONG 0x4ec DEFINED (__AltReservedTrap6)?ABSOLUTE (__AltReservedTrap6):DEFINED (__ReservedTrap6)?ABSOLUTE (__ReservedTrap6):ABSOLUTE (__DefaultInterrupt)
                  0x000112          0x4 LONG 0x4ec DEFINED (__AltReservedTrap7)?ABSOLUTE (__AltReservedTrap7):DEFINED (__ReservedTrap7)?ABSOLUTE (__ReservedTrap7):ABSOLUTE (__DefaultInterrupt)
                  0x000114          0x4 LONG 0x4ec DEFINED (__AltINT0Interrupt)?ABSOLUTE (__AltINT0Interrupt):DEFINED (__INT0Interrupt)?ABSOLUTE (__INT0Interrupt):ABSOLUTE (__DefaultInterrupt)
                  0x000116          0x4 LONG 0x4ec DEFINED (__AltIC1Interrupt)?ABSOLUTE (__AltIC1Interrupt):DEFINED (__IC1Interrupt)?ABSOLUTE (__IC1Interrupt):ABSOLUTE (__DefaultInterrupt)
                  0x000118          0x4 LONG 0x4ec DEFINED (__AltOC1Interrupt)?ABSOLUTE (__AltOC1Interrupt):DEFINED (__OC1Interrupt)?ABSOLUTE (__OC1Interrupt):ABSOLUTE (__DefaultInterrupt)
                  0x00011a          0x4 LONG 0x4ec DEFINED (__AltT1Interrupt)?ABSOLUTE (__AltT1Interrupt):DEFINED (__T1Interrupt)?ABSOLUTE (__T1Interrupt):ABSOLUTE (__DefaultInterrupt)
                  0x00011c          0x4 LONG 0x4ec DEFINED (__AltInterrupt4)?ABSOLUTE (__AltInterrupt4):DEFINED (__Interrupt4)?ABSOLUTE (__Interrupt4):ABSOLUTE (__DefaultInterrupt)
                  0x00011e          0x4 LONG 0x4ec DEFINED (__AltIC2Interrupt)?ABSOLUTE (__AltIC2Interrupt):DEFINED (__IC2Interrupt)?ABSOLUTE (__IC2Interrupt):ABSOLUTE (__DefaultInterrupt)
                  0x000120          0x4 LONG 0x4ec DEFINED (__AltOC2Interrupt)?ABSOLUTE (__AltOC2Interrupt):DEFINED (__OC2Interrupt)?ABSOLUTE (__OC2Interrupt):ABSOLUTE (__DefaultInterrupt)
                  0x000122          0x4 LONG 0x1628a DEFINED (__AltT2Interrupt)?ABSOLUTE (__AltT2Interrupt):DEFINED (__T2Interrupt)?ABSOLUTE (__T2Interrupt):ABSOLUTE (__DefaultInterrupt)
                  0x000124          0x4 LONG 0x4ec DEFINED (__AltT3Interrupt)?ABSOLUTE (__AltT3Interrupt):DEFINED (__T3Interrupt)?ABSOLUTE (__T3Interrupt):ABSOLUTE (__DefaultInterrupt)
                  0x000126          0x4 LONG 0x4ec DEFINED (__AltSPI1ErrInterrupt)?ABSOLUTE (__AltSPI1ErrInterrupt):DEFINED (__SPI1ErrInterrupt)?ABSOLUTE (__SPI1ErrInterrupt):ABSOLUTE (__DefaultInterrupt)
                  0x000128          0x4 LONG 0x4ec DEFINED (__AltSPI1Interrupt)?ABSOLUTE (__AltSPI1Interrupt):DEFINED (__SPI1Interrupt)?ABSOLUTE (__SPI1Interrupt):ABSOLUTE (__DefaultInterrupt)
                  0x00012a          0x4 LONG 0x17fa4 DEFINED (__AltU1RXInterrupt)?ABSOLUTE (__AltU1RXInterrupt):DEFINED (__U1RXInterrupt)?ABSOLUTE (__U1RXInterrupt):ABSOLUTE (__DefaultInterrupt)
                  0x00012c          0x4 LONG 0x17fe6 DEFINED (__AltU1TXInterrupt)?ABSOLUTE (__AltU1TXInterrupt):DEFINED (__U1TXInterrupt)?ABSOLUTE (__U1TXInterrupt):ABSOLUTE (__DefaultInterrupt)
                  0x00012e          0x4 LONG 0x4ec DEFINED (__AltADC1Interrupt)?ABSOLUTE (__AltADC1Interrupt):DEFINED (__ADC1Interrupt)?ABSOLUTE (__ADC1Interrupt):ABSOLUTE (__DefaultInterrupt)
                  0x000130          0x4 LONG 0x4ec DEFINED (__AltInterrupt14)?ABSOLUTE (__AltInterrupt14):DEFINED (__Interrupt14)?ABSOLUTE (__Interrupt14):ABSOLUTE (__DefaultInterrupt)
                  0x000132          0x4 LONG 0x4ec DEFINED (__AltInterrupt15)?ABSOLUTE (__AltInterrupt15):DEFINED (__Interrupt15)?ABSOLUTE (__Interrupt15):ABSOLUTE (__DefaultInterrupt)
                  0x000134          0x4 LONG 0x4ec DEFINED (__AltSI2C1Interrupt)?ABSOLUTE (__AltSI2C1Interrupt):DEFINED (__SI2C1Interrupt)?ABSOLUTE (__SI2C1Interrupt):ABSOLUTE (__DefaultInterrupt)
                  0x000136          0x4 LONG 0x4ec DEFINED (__AltMI2C1Interrupt)?ABSOLUTE (__AltMI2C1Interrupt):DEFINED (__MI2C1Interrupt)?ABSOLUTE (__MI2C1Interrupt):ABSOLUTE (__DefaultInterrupt)
                  0x000138          0x4 LONG 0x4ec DEFINED (__AltCompInterrupt)?ABSOLUTE (__AltCompInterrupt):DEFINED (__CompInterrupt)?ABSOLUTE (__CompInterrupt):ABSOLUTE (__DefaultInterrupt)
                  0x00013a          0x4 LONG 0x19e1a DEFINED (__AltCNInterrupt)?ABSOLUTE (__AltCNInterrupt):DEFINED (__CNInterrupt)?ABSOLUTE (__CNInterrupt):ABSOLUTE (__DefaultInterrupt)
                  0x00013c          0x4 LONG 0x4ec DEFINED (__AltINT1Interrupt)?ABSOLUTE (__AltINT1Interrupt):DEFINED (__INT1Interrupt)?ABSOLUTE (__INT1Interrupt):ABSOLUTE (__DefaultInterrupt)
                  0x00013e          0x4 LONG 0x4ec DEFINED (__AltInterrupt21)?ABSOLUTE (__AltInterrupt21):DEFINED (__Interrupt21)?ABSOLUTE (__Interrupt21):ABSOLUTE (__DefaultInterrupt)
                  0x000140          0x4 LONG 0x4ec DEFINED (__AltIC7Interrupt)?ABSOLUTE (__AltIC7Interrupt):DEFINED (__IC7Interrupt)?ABSOLUTE (__IC7Interrupt):ABSOLUTE (__DefaultInterrupt)
                  0x000142          0x4 LONG 0x4ec DEFINED (__AltIC8Interrupt)?ABSOLUTE (__AltIC8Interrupt):DEFINED (__IC8Interrupt)?ABSOLUTE (__IC8Interrupt):ABSOLUTE (__DefaultInterrupt)
                  0x000144          0x4 LONG 0x4ec DEFINED (__AltInterrupt24)?ABSOLUTE (__AltInterrupt24):DEFINED (__Interrupt24)?ABSOLUTE (__Interrupt24):ABSOLUTE (__DefaultInterrupt)
                  0x000146          0x4 LONG 0x4ec DEFINED (__AltOC3Interrupt)?ABSOLUTE (__AltOC3Interrupt):DEFINED (__OC3Interrupt)?ABSOLUTE (__OC3Interrupt):ABSOLUTE (__DefaultInterrupt)
                  0x000148          0x4 LONG 0x4ec DEFINED (__AltOC4Interrupt)?ABSOLUTE (__AltOC4Interrupt):DEFINED (__OC4Interrupt)?ABSOLUTE (__OC4Interrupt):ABSOLUTE (__DefaultInterrupt)
                  0x00014a          0x4 LONG 0x10d8a DEFINED (__AltT4Interrupt)?ABSOLUTE (__AltT4Interrupt):DEFINED (__T4Interrupt)?ABSOLUTE (__T4Interrupt):ABSOLUTE (__DefaultInterrupt)
                  0x00014c          0x4 LONG 0x19eae DEFINED (__AltT5Interrupt)?ABSOLUTE (__AltT5Interrupt):DEFINED (__T5Interrupt)?ABSOLUTE (__T5Interrupt):ABSOLUTE (__DefaultInterrupt)
                  0x00014e          0x4 LONG 0x4ec DEFINED (__AltINT2Interrupt)?ABSOLUTE (__AltINT2Interrupt):DEFINED (__INT2Interrupt)?ABSOLUTE (__INT2Interrupt):ABSOLUTE (__DefaultInterrupt)
                  0x000150          0x4 LONG 0x1854e DEFINED (__AltU2RXInterrupt)?ABSOLUTE (__AltU2RXInterrupt):DEFINED (__U2RXInterrupt)?ABSOLUTE (__U2RXInterrupt):ABSOLUTE (__DefaultInterrupt)
                  0x000152          0x4 LONG 0x18590 DEFINED (__AltU2TXInterrupt)?ABSOLUTE (__AltU2TXInterrupt):DEFINED (__U2TXInterrupt)?ABSOLUTE (__U2TXInterrupt):ABSOLUTE (__DefaultInterrupt)
                  0x000154          0x4 LONG 0x4ec DEFINED (__AltSPI2ErrInterrupt)?ABSOLUTE (__AltSPI2ErrInterrupt):DEFINED (__SPI2ErrInterrupt)?ABSOLUTE (__SPI2ErrInterrupt):ABSOLUTE (__DefaultInterrupt)
                  0x000156          0x4 LONG 0x4ec DEFINED (__AltSPI2Interrupt)?ABSOLUTE (__AltSPI2Interrupt):DEFINED (__SPI2Interrupt)?ABSOLUTE (__SPI2Interrupt):ABSOLUTE (__DefaultInterrupt)
                  0x000158          0x4 LONG 0x4ec DEFINED (__AltInterrupt34)?ABSOLUTE (__AltInterrupt34):DEFINED (__Interrupt34)?ABSOLUTE (__Interrupt34):ABSOLUTE (__DefaultInterrupt)
                  0x00015a          0x4 LONG 0x4ec DEFINED (__AltInterrupt35)?ABSOLUTE (__AltInterrupt35):DEFINED (__Interrupt35)?ABSOLUTE (__Interrupt35):ABSOLUTE (__DefaultInterrupt)
                  0x00015c          0x4 LONG 0x4ec DEFINED (__AltInterrupt36)?ABSOLUTE (__AltInterrupt36):DEFINED (__Interrupt36)?ABSOLUTE (__Interrupt36):ABSOLUTE (__DefaultInterrupt)
                  0x00015e          0x4 LONG 0x4ec DEFINED (__AltIC3Interrupt)?ABSOLUTE (__AltIC3Interrupt):DEFINED (__IC3Interrupt)?ABSOLUTE (__IC3Interrupt):ABSOLUTE (__DefaultInterrupt)
                  0x000160          0x4 LONG 0x4ec DEFINED (__AltIC4Interrupt)?ABSOLUTE (__AltIC4Interrupt):DEFINED (__IC4Interrupt)?ABSOLUTE (__IC4Interrupt):ABSOLUTE (__DefaultInterrupt)
                  0x000162          0x4 LONG 0x4ec DEFINED (__AltIC5Interrupt)?ABSOLUTE (__AltIC5Interrupt):DEFINED (__IC5Interrupt)?ABSOLUTE (__IC5Interrupt):ABSOLUTE (__DefaultInterrupt)
                  0x000164          0x4 LONG 0x4ec DEFINED (__AltIC6Interrupt)?ABSOLUTE (__AltIC6Interrupt):DEFINED (__IC6Interrupt)?ABSOLUTE (__IC6Interrupt):ABSOLUTE (__DefaultInterrupt)
                  0x000166          0x4 LONG 0x4ec DEFINED (__AltOC5Interrupt)?ABSOLUTE (__AltOC5Interrupt):DEFINED (__OC5Interrupt)?ABSOLUTE (__OC5Interrupt):ABSOLUTE (__DefaultInterrupt)
                  0x000168          0x4 LONG 0x4ec DEFINED (__AltOC6Interrupt)?ABSOLUTE (__AltOC6Interrupt):DEFINED (__OC6Interrupt)?ABSOLUTE (__OC6Interrupt):ABSOLUTE (__DefaultInterrupt)
                  0x00016a          0x4 LONG 0x4ec DEFINED (__AltOC7Interrupt)?ABSOLUTE (__AltOC7Interrupt):DEFINED (__OC7Interrupt)?ABSOLUTE (__OC7Interrupt):ABSOLUTE (__DefaultInterrupt)
                  0x00016c          0x4 LONG 0x4ec DEFINED (__AltOC8Interrupt)?ABSOLUTE (__AltOC8Interrupt):DEFINED (__OC8Interrupt)?ABSOLUTE (__OC8Interrupt):ABSOLUTE (__DefaultInterrupt)
                  0x00016e          0x4 LONG 0x4ec DEFINED (__AltPMPInterrupt)?ABSOLUTE (__AltPMPInterrupt):DEFINED (__PMPInterrupt)?ABSOLUTE (__PMPInterrupt):ABSOLUTE (__DefaultInterrupt)
                  0x000170          0x4 LONG 0x4ec DEFINED (__AltInterrupt46)?ABSOLUTE (__AltInterrupt46):DEFINED (__Interrupt46)?ABSOLUTE (__Interrupt46):ABSOLUTE (__DefaultInterrupt)
                  0x000172          0x4 LONG 0x4ec DEFINED (__AltInterrupt47)?ABSOLUTE (__AltInterrupt47):DEFINED (__Interrupt47)?ABSOLUTE (__Interrupt47):ABSOLUTE (__DefaultInterrupt)
                  0x000174          0x4 LONG 0x4ec DEFINED (__AltInterrupt48)?ABSOLUTE (__AltInterrupt48):DEFINED (__Interrupt48)?ABSOLUTE (__Interrupt48):ABSOLUTE (__DefaultInterrupt)
                  0x000176          0x4 LONG 0x4ec DEFINED (__AltSI2C2Interrupt)?ABSOLUTE (__AltSI2C2Interrupt):DEFINED (__SI2C2Interrupt)?ABSOLUTE (__SI2C2Interrupt):ABSOLUTE (__DefaultInterrupt)
                  0x000178          0x4 LONG 0x4ec DEFINED (__AltMI2C2Interrupt)?ABSOLUTE (__AltMI2C2Interrupt):DEFINED (__MI2C2Interrupt)?ABSOLUTE (__MI2C2Interrupt):ABSOLUTE (__DefaultInterrupt)
                  0x00017a          0x4 LONG 0x4ec DEFINED (__AltInterrupt51)?ABSOLUTE (__AltInterrupt51):DEFINED (__Interrupt51)?ABSOLUTE (__Interrupt51):ABSOLUTE (__DefaultInterrupt)
                  0x00017c          0x4 LONG 0x4ec DEFINED (__AltInterrupt52)?ABSOLUTE (__AltInterrupt52):DEFINED (__Interrupt52)?ABSOLUTE (__Interrupt52):ABSOLUTE (__DefaultInterrupt)
                  0x00017e          0x4 LONG 0x4ec DEFINED (__AltINT3Interrupt)?ABSOLUTE (__AltINT3Interrupt):DEFINED (__INT3Interrupt)?ABSOLUTE (__INT3Interrupt):ABSOLUTE (__DefaultInterrupt)
                  0x000180          0x4 LONG 0x4ec DEFINED (__AltINT4Interrupt)?ABSOLUTE (__AltINT4Interrupt):DEFINED (__INT4Interrupt)?ABSOLUTE (__INT4Interrupt):ABSOLUTE (__DefaultInterrupt)
                  0x000182          0x4 LONG 0x4ec DEFINED (__AltInterrupt55)?ABSOLUTE (__AltInterrupt55):DEFINED (__Interrupt55)?ABSOLUTE (__Interrupt55):ABSOLUTE (__DefaultInterrupt)
                  0x000184          0x4 LONG 0x4ec DEFINED (__AltInterrupt56)?ABSOLUTE (__AltInterrupt56):DEFINED (__Interrupt56)?ABSOLUTE (__Interrupt56):ABSOLUTE (__DefaultInterrupt)
                  0x000186          0x4 LONG 0x4ec DEFINED (__AltInterrupt57)?ABSOLUTE (__AltInterrupt57):DEFINED (__Interrupt57)?ABSOLUTE (__Interrupt57):ABSOLUTE (__DefaultInterrupt)
                  0x000188          0x4 LONG 0x4ec DEFINED (__AltInterrupt58)?ABSOLUTE (__AltInterrupt58):DEFINED (__Interrupt58)?ABSOLUTE (__Interrupt58):ABSOLUTE (__DefaultInterrupt)
                  0x00018a          0x4 LONG 0x4ec DEFINED (__AltInterrupt59)?ABSOLUTE (__AltInterrupt59):DEFINED (__Interrupt59)?ABSOLUTE (__Interrupt59):ABSOLUTE (__DefaultInterrupt)
                  0x00018c          0x4 LONG 0x4ec DEFINED (__AltInterrupt60)?ABSOLUTE (__AltInterrupt60):DEFINED (__Interrupt60)?ABSOLUTE (__Interrupt60):ABSOLUTE (__DefaultInterrupt)
                  0x00018e          0x4 LONG 0x4ec DEFINED (__AltInterrupt61)?ABSOLUTE (__AltInterrupt61):DEFINED (__Interrupt61)?ABSOLUTE (__Interrupt61):ABSOLUTE (__DefaultInterrupt)
                  0x000190          0x4 LONG 0x10dbc DEFINED (__AltRTCCInterrupt)?ABSOLUTE (__AltRTCCInterrupt):DEFINED (__RTCCInterrupt)?ABSOLUTE (__RTCCInterrupt):ABSOLUTE (__DefaultInterrupt)
                  0x000192          0x4 LONG 0x4ec DEFINED (__AltInterrupt63)?ABSOLUTE (__AltInterrupt63):DEFINED (__Interrupt63)?ABSOLUTE (__Interrupt63):ABSOLUTE (__DefaultInterrupt)
                  0x000194          0x4 LONG 0x4ec DEFINED (__AltInterrupt64)?ABSOLUTE (__AltInterrupt64):DEFINED (__Interrupt64)?ABSOLUTE (__Interrupt64):ABSOLUTE (__DefaultInterrupt)
                  0x000196          0x4 LONG 0x4ec DEFINED (__AltU1ErrInterrupt)?ABSOLUTE (__AltU1ErrInterrupt):DEFINED (__U1ErrInterrupt)?ABSOLUTE (__U1ErrInterrupt):ABSOLUTE (__DefaultInterrupt)
                  0x000198          0x4 LONG 0x4ec DEFINED (__AltU2ErrInterrupt)?ABSOLUTE (__AltU2ErrInterrupt):DEFINED (__U2ErrInterrupt)?ABSOLUTE (__U2ErrInterrupt):ABSOLUTE (__DefaultInterrupt)
                  0x00019a          0x4 LONG 0x4ec DEFINED (__AltCRCInterrupt)?ABSOLUTE (__AltCRCInterrupt):DEFINED (__CRCInterrupt)?ABSOLUTE (__CRCInterrupt):ABSOLUTE (__DefaultInterrupt)
                  0x00019c          0x4 LONG 0x4ec DEFINED (__AltInterrupt68)?ABSOLUTE (__AltInterrupt68):DEFINED (__Interrupt68)?ABSOLUTE (__Interrupt68):ABSOLUTE (__DefaultInterrupt)
                  0x00019e          0x4 LONG 0x4ec DEFINED (__AltInterrupt69)?ABSOLUTE (__AltInterrupt69):DEFINED (__Interrupt69)?ABSOLUTE (__Interrupt69):ABSOLUTE (__DefaultInterrupt)
                  0x0001a0          0x4 LONG 0x4ec DEFINED (__AltInterrupt70)?ABSOLUTE (__AltInterrupt70):DEFINED (__Interrupt70)?ABSOLUTE (__Interrupt70):ABSOLUTE (__DefaultInterrupt)
                  0x0001a2          0x4 LONG 0x4ec DEFINED (__AltInterrupt71)?ABSOLUTE (__AltInterrupt71):DEFINED (__Interrupt71)?ABSOLUTE (__Interrupt71):ABSOLUTE (__DefaultInterrupt)
                  0x0001a4          0x4 LONG 0x4ec DEFINED (__AltLVDInterrupt)?ABSOLUTE (__AltLVDInterrupt):DEFINED (__LVDInterrupt)?ABSOLUTE (__LVDInterrupt):ABSOLUTE (__DefaultInterrupt)
                  0x0001a6          0x4 LONG 0x4ec DEFINED (__AltInterrupt73)?ABSOLUTE (__AltInterrupt73):DEFINED (__Interrupt73)?ABSOLUTE (__Interrupt73):ABSOLUTE (__DefaultInterrupt)
                  0x0001a8          0x4 LONG 0x4ec DEFINED (__AltInterrupt74)?ABSOLUTE (__AltInterrupt74):DEFINED (__Interrupt74)?ABSOLUTE (__Interrupt74):ABSOLUTE (__DefaultInterrupt)
                  0x0001aa          0x4 LONG 0x4ec DEFINED (__AltInterrupt75)?ABSOLUTE (__AltInterrupt75):DEFINED (__Interrupt75)?ABSOLUTE (__Interrupt75):ABSOLUTE (__DefaultInterrupt)
                  0x0001ac          0x4 LONG 0x4ec DEFINED (__AltInterrupt76)?ABSOLUTE (__AltInterrupt76):DEFINED (__Interrupt76)?ABSOLUTE (__Interrupt76):ABSOLUTE (__DefaultInterrupt)
                  0x0001ae          0x4 LONG 0x4ec DEFINED (__AltCTMUInterrupt)?ABSOLUTE (__AltCTMUInterrupt):DEFINED (__CTMUInterrupt)?ABSOLUTE (__CTMUInterrupt):ABSOLUTE (__DefaultInterrupt)
                  0x0001b0          0x4 LONG 0x4ec DEFINED (__AltInterrupt78)?ABSOLUTE (__AltInterrupt78):DEFINED (__Interrupt78)?ABSOLUTE (__Interrupt78):ABSOLUTE (__DefaultInterrupt)
                  0x0001b2          0x4 LONG 0x4ec DEFINED (__AltInterrupt79)?ABSOLUTE (__AltInterrupt79):DEFINED (__Interrupt79)?ABSOLUTE (__Interrupt79):ABSOLUTE (__DefaultInterrupt)
                  0x0001b4          0x4 LONG 0x4ec DEFINED (__AltInterrupt80)?ABSOLUTE (__AltInterrupt80):DEFINED (__Interrupt80)?ABSOLUTE (__Interrupt80):ABSOLUTE (__DefaultInterrupt)
                  0x0001b6          0x4 LONG 0x4ec DEFINED (__AltU3ErrInterrupt)?ABSOLUTE (__AltU3ErrInterrupt):DEFINED (__U3ErrInterrupt)?ABSOLUTE (__U3ErrInterrupt):ABSOLUTE (__DefaultInterrupt)
                  0x0001b8          0x4 LONG 0x1827a DEFINED (__AltU3RXInterrupt)?ABSOLUTE (__AltU3RXInterrupt):DEFINED (__U3RXInterrupt)?ABSOLUTE (__U3RXInterrupt):ABSOLUTE (__DefaultInterrupt)
                  0x0001ba          0x4 LONG 0x182bc DEFINED (__AltU3TXInterrupt)?ABSOLUTE (__AltU3TXInterrupt):DEFINED (__U3TXInterrupt)?ABSOLUTE (__U3TXInterrupt):ABSOLUTE (__DefaultInterrupt)
                  0x0001bc          0x4 LONG 0x4ec DEFINED (__AltSI2C3Interrupt)?ABSOLUTE (__AltSI2C3Interrupt):DEFINED (__SI2C3Interrupt)?ABSOLUTE (__SI2C3Interrupt):ABSOLUTE (__DefaultInterrupt)
                  0x0001be          0x4 LONG 0x4ec DEFINED (__AltMI2C3Interrupt)?ABSOLUTE (__AltMI2C3Interrupt):DEFINED (__MI2C3Interrupt)?ABSOLUTE (__MI2C3Interrupt):ABSOLUTE (__DefaultInterrupt)
                  0x0001c0          0x4 LONG 0x125fa DEFINED (__AltUSB1Interrupt)?ABSOLUTE (__AltUSB1Interrupt):DEFINED (__USB1Interrupt)?ABSOLUTE (__USB1Interrupt):ABSOLUTE (__DefaultInterrupt)
                  0x0001c2          0x4 LONG 0x4ec DEFINED (__AltU4ErrInterrupt)?ABSOLUTE (__AltU4ErrInterrupt):DEFINED (__U4ErrInterrupt)?ABSOLUTE (__U4ErrInterrupt):ABSOLUTE (__DefaultInterrupt)
                  0x0001c4          0x4 LONG 0x4ec DEFINED (__AltU4RXInterrupt)?ABSOLUTE (__AltU4RXInterrupt):DEFINED (__U4RXInterrupt)?ABSOLUTE (__U4RXInterrupt):ABSOLUTE (__DefaultInterrupt)
                  0x0001c6          0x4 LONG 0x4ec DEFINED (__AltU4TXInterrupt)?ABSOLUTE (__AltU4TXInterrupt):DEFINED (__U4TXInterrupt)?ABSOLUTE (__U4TXInterrupt):ABSOLUTE (__DefaultInterrupt)
                  0x0001c8          0x4 LONG 0x4ec DEFINED (__AltSPI3ErrInterrupt)?ABSOLUTE (__AltSPI3ErrInterrupt):DEFINED (__SPI3ErrInterrupt)?ABSOLUTE (__SPI3ErrInterrupt):ABSOLUTE (__DefaultInterrupt)
                  0x0001ca          0x4 LONG 0x4ec DEFINED (__AltSPI3Interrupt)?ABSOLUTE (__AltSPI3Interrupt):DEFINED (__SPI3Interrupt)?ABSOLUTE (__SPI3Interrupt):ABSOLUTE (__DefaultInterrupt)
                  0x0001cc          0x4 LONG 0x4ec DEFINED (__AltOC9Interrupt)?ABSOLUTE (__AltOC9Interrupt):DEFINED (__OC9Interrupt)?ABSOLUTE (__OC9Interrupt):ABSOLUTE (__DefaultInterrupt)
                  0x0001ce          0x4 LONG 0x4ec DEFINED (__AltIC9Interrupt)?ABSOLUTE (__AltIC9Interrupt):DEFINED (__IC9Interrupt)?ABSOLUTE (__IC9Interrupt):ABSOLUTE (__DefaultInterrupt)
                  0x0001d0          0x4 LONG 0x4ec DEFINED (__AltInterrupt94)?ABSOLUTE (__AltInterrupt94):DEFINED (__Interrupt94)?ABSOLUTE (__Interrupt94):ABSOLUTE (__DefaultInterrupt)
                  0x0001d2          0x4 LONG 0x4ec DEFINED (__AltInterrupt95)?ABSOLUTE (__AltInterrupt95):DEFINED (__Interrupt95)?ABSOLUTE (__Interrupt95):ABSOLUTE (__DefaultInterrupt)
                  0x0001d4          0x4 LONG 0x4ec DEFINED (__AltInterrupt96)?ABSOLUTE (__AltInterrupt96):DEFINED (__Interrupt96)?ABSOLUTE (__Interrupt96):ABSOLUTE (__DefaultInterrupt)
                  0x0001d6          0x4 LONG 0x4ec DEFINED (__AltInterrupt97)?ABSOLUTE (__AltInterrupt97):DEFINED (__Interrupt97)?ABSOLUTE (__Interrupt97):ABSOLUTE (__DefaultInterrupt)
                  0x0001d8          0x4 LONG 0x4ec DEFINED (__AltInterrupt98)?ABSOLUTE (__AltInterrupt98):DEFINED (__Interrupt98)?ABSOLUTE (__Interrupt98):ABSOLUTE (__DefaultInterrupt)
                  0x0001da          0x4 LONG 0x4ec DEFINED (__AltInterrupt99)?ABSOLUTE (__AltInterrupt99):DEFINED (__Interrupt99)?ABSOLUTE (__Interrupt99):ABSOLUTE (__DefaultInterrupt)
                  0x0001dc          0x4 LONG 0x4ec DEFINED (__AltInterrupt100)?ABSOLUTE (__AltInterrupt100):DEFINED (__Interrupt100)?ABSOLUTE (__Interrupt100):ABSOLUTE (__DefaultInterrupt)
                  0x0001de          0x4 LONG 0x4ec DEFINED (__AltInterrupt101)?ABSOLUTE (__AltInterrupt101):DEFINED (__Interrupt101)?ABSOLUTE (__Interrupt101):ABSOLUTE (__DefaultInterrupt)
                  0x0001e0          0x4 LONG 0x4ec DEFINED (__AltInterrupt102)?ABSOLUTE (__AltInterrupt102):DEFINED (__Interrupt102)?ABSOLUTE (__Interrupt102):ABSOLUTE (__DefaultInterrupt)
                  0x0001e2          0x4 LONG 0x4ec DEFINED (__AltInterrupt103)?ABSOLUTE (__AltInterrupt103):DEFINED (__Interrupt103)?ABSOLUTE (__Interrupt103):ABSOLUTE (__DefaultInterrupt)
                  0x0001e4          0x4 LONG 0x4ec DEFINED (__AltInterrupt104)?ABSOLUTE (__AltInterrupt104):DEFINED (__Interrupt104)?ABSOLUTE (__Interrupt104):ABSOLUTE (__DefaultInterrupt)
                  0x0001e6          0x4 LONG 0x4ec DEFINED (__AltInterrupt105)?ABSOLUTE (__AltInterrupt105):DEFINED (__Interrupt105)?ABSOLUTE (__Interrupt105):ABSOLUTE (__DefaultInterrupt)
                  0x0001e8          0x4 LONG 0x4ec DEFINED (__AltInterrupt106)?ABSOLUTE (__AltInterrupt106):DEFINED (__Interrupt106)?ABSOLUTE (__Interrupt106):ABSOLUTE (__DefaultInterrupt)
                  0x0001ea          0x4 LONG 0x4ec DEFINED (__AltInterrupt107)?ABSOLUTE (__AltInterrupt107):DEFINED (__Interrupt107)?ABSOLUTE (__Interrupt107):ABSOLUTE (__DefaultInterrupt)
                  0x0001ec          0x4 LONG 0x4ec DEFINED (__AltInterrupt108)?ABSOLUTE (__AltInterrupt108):DEFINED (__Interrupt108)?ABSOLUTE (__Interrupt108):ABSOLUTE (__DefaultInterrupt)
                  0x0001ee          0x4 LONG 0x4ec DEFINED (__AltInterrupt109)?ABSOLUTE (__AltInterrupt109):DEFINED (__Interrupt109)?ABSOLUTE (__Interrupt109):ABSOLUTE (__DefaultInterrupt)
                  0x0001f0          0x4 LONG 0x4ec DEFINED (__AltInterrupt110)?ABSOLUTE (__AltInterrupt110):DEFINED (__Interrupt110)?ABSOLUTE (__Interrupt110):ABSOLUTE (__DefaultInterrupt)
                  0x0001f2          0x4 LONG 0x4ec DEFINED (__AltInterrupt111)?ABSOLUTE (__AltInterrupt111):DEFINED (__Interrupt111)?ABSOLUTE (__Interrupt111):ABSOLUTE (__DefaultInterrupt)
                  0x0001f4          0x4 LONG 0x4ec DEFINED (__AltInterrupt112)?ABSOLUTE (__AltInterrupt112):DEFINED (__Interrupt112)?ABSOLUTE (__Interrupt112):ABSOLUTE (__DefaultInterrupt)
                  0x0001f6          0x4 LONG 0x4ec DEFINED (__AltInterrupt113)?ABSOLUTE (__AltInterrupt113):DEFINED (__Interrupt113)?ABSOLUTE (__Interrupt113):ABSOLUTE (__DefaultInterrupt)
                  0x0001f8          0x4 LONG 0x4ec DEFINED (__AltInterrupt114)?ABSOLUTE (__AltInterrupt114):DEFINED (__Interrupt114)?ABSOLUTE (__Interrupt114):ABSOLUTE (__DefaultInterrupt)
                  0x0001fa          0x4 LONG 0x4ec DEFINED (__AltInterrupt115)?ABSOLUTE (__AltInterrupt115):DEFINED (__Interrupt115)?ABSOLUTE (__Interrupt115):ABSOLUTE (__DefaultInterrupt)
                  0x0001fc          0x4 LONG 0x4ec DEFINED (__AltInterrupt116)?ABSOLUTE (__AltInterrupt116):DEFINED (__Interrupt116)?ABSOLUTE (__Interrupt116):ABSOLUTE (__DefaultInterrupt)
                  0x0001fe          0x4 LONG 0x4ec DEFINED (__AltInterrupt117)?ABSOLUTE (__AltInterrupt117):DEFINED (__Interrupt117)?ABSOLUTE (__Interrupt117):ABSOLUTE (__DefaultInterrupt)
                    0x0000                  WREG0 = 0x0
                    0x0000                  _WREG0 = 0x0
                    0x0002                  WREG1 = 0x2
                    0x0002                  _WREG1 = 0x2
                    0x0004                  WREG2 = 0x4
                    0x0004                  _WREG2 = 0x4
                    0x0006                  WREG3 = 0x6
                    0x0006                  _WREG3 = 0x6
                    0x0008                  WREG4 = 0x8
                    0x0008                  _WREG4 = 0x8
                    0x000a                  WREG5 = 0xa
                    0x000a                  _WREG5 = 0xa
                    0x000c                  WREG6 = 0xc
                    0x000c                  _WREG6 = 0xc
                    0x000e                  WREG7 = 0xe
                    0x000e                  _WREG7 = 0xe
                    0x0010                  WREG8 = 0x10
                    0x0010                  _WREG8 = 0x10
                    0x0012                  WREG9 = 0x12
                    0x0012                  _WREG9 = 0x12
                    0x0014                  WREG10 = 0x14
                    0x0014                  _WREG10 = 0x14
                    0x0016                  WREG11 = 0x16
                    0x0016                  _WREG11 = 0x16
                    0x0018                  WREG12 = 0x18
                    0x0018                  _WREG12 = 0x18
                    0x001a                  WREG13 = 0x1a
                    0x001a                  _WREG13 = 0x1a
                    0x001c                  WREG14 = 0x1c
                    0x001c                  _WREG14 = 0x1c
                    0x001e                  WREG15 = 0x1e
                    0x001e                  _WREG15 = 0x1e
                    0x0020                  SPLIM = 0x20
                    0x0020                  _SPLIM = 0x20
                    0x002e                  PCL = 0x2e
                    0x002e                  _PCL = 0x2e
                    0x0030                  PCH = 0x30
                    0x0030                  _PCH = 0x30
                    0x0032                  TBLPAG = 0x32
                    0x0032                  _TBLPAG = 0x32
                    0x0034                  PSVPAG = 0x34
                    0x0034                  _PSVPAG = 0x34
                    0x0036                  RCOUNT = 0x36
                    0x0036                  _RCOUNT = 0x36
                    0x0042                  SR = 0x42
                    0x0042                  _SR = 0x42
                    0x0042                  _SRbits = 0x42
                    0x0044                  CORCON = 0x44
                    0x0044                  _CORCON = 0x44
                    0x0044                  _CORCONbits = 0x44
                    0x0052                  DISICNT = 0x52
                    0x0052                  _DISICNT = 0x52
                    0x0054                  CNPD1 = 0x54
                    0x0054                  _CNPD1 = 0x54
                    0x0054                  _CNPD1bits = 0x54
                    0x0056                  CNPD2 = 0x56
                    0x0056                  _CNPD2 = 0x56
                    0x0056                  _CNPD2bits = 0x56
                    0x0058                  CNPD3 = 0x58
                    0x0058                  _CNPD3 = 0x58
                    0x0058                  _CNPD3bits = 0x58
                    0x005a                  CNPD4 = 0x5a
                    0x005a                  _CNPD4 = 0x5a
                    0x005a                  _CNPD4bits = 0x5a
                    0x005c                  CNPD5 = 0x5c
                    0x005c                  _CNPD5 = 0x5c
                    0x005c                  _CNPD5bits = 0x5c
                    0x0060                  CNEN1 = 0x60
                    0x0060                  _CNEN1 = 0x60
                    0x0060                  _CNEN1bits = 0x60
                    0x0062                  CNEN2 = 0x62
                    0x0062                  _CNEN2 = 0x62
                    0x0062                  _CNEN2bits = 0x62
                    0x0064                  CNEN3 = 0x64
                    0x0064                  _CNEN3 = 0x64
                    0x0064                  _CNEN3bits = 0x64
                    0x0066                  CNEN4 = 0x66
                    0x0066                  _CNEN4 = 0x66
                    0x0066                  _CNEN4bits = 0x66
                    0x0068                  CNEN5 = 0x68
                    0x0068                  _CNEN5 = 0x68
                    0x0068                  _CNEN5bits = 0x68
                    0x006c                  CNPU1 = 0x6c
                    0x006c                  _CNPU1 = 0x6c
                    0x006c                  _CNPU1bits = 0x6c
                    0x006e                  CNPU2 = 0x6e
                    0x006e                  _CNPU2 = 0x6e
                    0x006e                  _CNPU2bits = 0x6e
                    0x0070                  CNPU3 = 0x70
                    0x0070                  _CNPU3 = 0x70
                    0x0070                  _CNPU3bits = 0x70
                    0x0072                  CNPU4 = 0x72
                    0x0072                  _CNPU4 = 0x72
                    0x0072                  _CNPU4bits = 0x72
                    0x0074                  CNPU5 = 0x74
                    0x0074                  _CNPU5 = 0x74
                    0x0074                  _CNPU5bits = 0x74
                    0x0080                  INTCON1 = 0x80
                    0x0080                  _INTCON1 = 0x80
                    0x0080                  _INTCON1bits = 0x80
                    0x0082                  INTCON2 = 0x82
                    0x0082                  _INTCON2 = 0x82
                    0x0082                  _INTCON2bits = 0x82
                    0x0084                  IFS0 = 0x84
                    0x0084                  _IFS0 = 0x84
                    0x0084                  _IFS0bits = 0x84
                    0x0086                  IFS1 = 0x86
                    0x0086                  _IFS1 = 0x86
                    0x0086                  _IFS1bits = 0x86
                    0x0088                  IFS2 = 0x88
                    0x0088                  _IFS2 = 0x88
                    0x0088                  _IFS2bits = 0x88
                    0x008a                  IFS3 = 0x8a
                    0x008a                  _IFS3 = 0x8a
                    0x008a                  _IFS3bits = 0x8a
                    0x008c                  IFS4 = 0x8c
                    0x008c                  _IFS4 = 0x8c
                    0x008c                  _IFS4bits = 0x8c
                    0x008e                  IFS5 = 0x8e
                    0x008e                  _IFS5 = 0x8e
                    0x008e                  _IFS5bits = 0x8e
                    0x0094                  IEC0 = 0x94
                    0x0094                  _IEC0 = 0x94
                    0x0094                  _IEC0bits = 0x94
                    0x0096                  IEC1 = 0x96
                    0x0096                  _IEC1 = 0x96
                    0x0096                  _IEC1bits = 0x96
                    0x0098                  IEC2 = 0x98
                    0x0098                  _IEC2 = 0x98
                    0x0098                  _IEC2bits = 0x98
                    0x009a                  IEC3 = 0x9a
                    0x009a                  _IEC3 = 0x9a
                    0x009a                  _IEC3bits = 0x9a
                    0x009c                  IEC4 = 0x9c
                    0x009c                  _IEC4 = 0x9c
                    0x009c                  _IEC4bits = 0x9c
                    0x009e                  IEC5 = 0x9e
                    0x009e                  _IEC5 = 0x9e
                    0x009e                  _IEC5bits = 0x9e
                    0x00a4                  IPC0 = 0xa4
                    0x00a4                  _IPC0 = 0xa4
                    0x00a4                  _IPC0bits = 0xa4
                    0x00a6                  IPC1 = 0xa6
                    0x00a6                  _IPC1 = 0xa6
                    0x00a6                  _IPC1bits = 0xa6
                    0x00a8                  IPC2 = 0xa8
                    0x00a8                  _IPC2 = 0xa8
                    0x00a8                  _IPC2bits = 0xa8
                    0x00aa                  IPC3 = 0xaa
                    0x00aa                  _IPC3 = 0xaa
                    0x00aa                  _IPC3bits = 0xaa
                    0x00ac                  IPC4 = 0xac
                    0x00ac                  _IPC4 = 0xac
                    0x00ac                  _IPC4bits = 0xac
                    0x00ae                  IPC5 = 0xae
                    0x00ae                  _IPC5 = 0xae
                    0x00ae                  _IPC5bits = 0xae
                    0x00b0                  IPC6 = 0xb0
                    0x00b0                  _IPC6 = 0xb0
                    0x00b0                  _IPC6bits = 0xb0
                    0x00b2                  IPC7 = 0xb2
                    0x00b2                  _IPC7 = 0xb2
                    0x00b2                  _IPC7bits = 0xb2
                    0x00b4                  IPC8 = 0xb4
                    0x00b4                  _IPC8 = 0xb4
                    0x00b4                  _IPC8bits = 0xb4
                    0x00b6                  IPC9 = 0xb6
                    0x00b6                  _IPC9 = 0xb6
                    0x00b6                  _IPC9bits = 0xb6
                    0x00b8                  IPC10 = 0xb8
                    0x00b8                  _IPC10 = 0xb8
                    0x00b8                  _IPC10bits = 0xb8
                    0x00ba                  IPC11 = 0xba
                    0x00ba                  _IPC11 = 0xba
                    0x00ba                  _IPC11bits = 0xba
                    0x00bc                  IPC12 = 0xbc
                    0x00bc                  _IPC12 = 0xbc
                    0x00bc                  _IPC12bits = 0xbc
                    0x00be                  IPC13 = 0xbe
                    0x00be                  _IPC13 = 0xbe
                    0x00be                  _IPC13bits = 0xbe
                    0x00c2                  IPC15 = 0xc2
                    0x00c2                  _IPC15 = 0xc2
                    0x00c2                  _IPC15bits = 0xc2
                    0x00c4                  IPC16 = 0xc4
                    0x00c4                  _IPC16 = 0xc4
                    0x00c4                  _IPC16bits = 0xc4
                    0x00c8                  IPC18 = 0xc8
                    0x00c8                  _IPC18 = 0xc8
                    0x00c8                  _IPC18bits = 0xc8
                    0x00ca                  IPC19 = 0xca
                    0x00ca                  _IPC19 = 0xca
                    0x00ca                  _IPC19bits = 0xca
                    0x00cc                  IPC20 = 0xcc
                    0x00cc                  _IPC20 = 0xcc
                    0x00cc                  _IPC20bits = 0xcc
                    0x00ce                  IPC21 = 0xce
                    0x00ce                  _IPC21 = 0xce
                    0x00ce                  _IPC21bits = 0xce
                    0x00d0                  IPC22 = 0xd0
                    0x00d0                  _IPC22 = 0xd0
                    0x00d0                  _IPC22bits = 0xd0
                    0x00d2                  IPC23 = 0xd2
                    0x00d2                  _IPC23 = 0xd2
                    0x00d2                  _IPC23bits = 0xd2
                    0x00e0                  INTTREG = 0xe0
                    0x00e0                  _INTTREG = 0xe0
                    0x00e0                  _INTTREGbits = 0xe0
                    0x0100                  TMR1 = 0x100
                    0x0100                  _TMR1 = 0x100
                    0x0102                  PR1 = 0x102
                    0x0102                  _PR1 = 0x102
                    0x0104                  T1CON = 0x104
                    0x0104                  _T1CON = 0x104
                    0x0104                  _T1CONbits = 0x104
                    0x0106                  TMR2 = 0x106
                    0x0106                  _TMR2 = 0x106
                    0x0108                  TMR3HLD = 0x108
                    0x0108                  _TMR3HLD = 0x108
                    0x010a                  TMR3 = 0x10a
                    0x010a                  _TMR3 = 0x10a
                    0x010c                  PR2 = 0x10c
                    0x010c                  _PR2 = 0x10c
                    0x010e                  PR3 = 0x10e
                    0x010e                  _PR3 = 0x10e
                    0x0110                  T2CON = 0x110
                    0x0110                  _T2CON = 0x110
                    0x0110                  _T2CONbits = 0x110
                    0x0112                  T3CON = 0x112
                    0x0112                  _T3CON = 0x112
                    0x0112                  _T3CONbits = 0x112
                    0x0114                  TMR4 = 0x114
                    0x0114                  _TMR4 = 0x114
                    0x0116                  TMR5HLD = 0x116
                    0x0116                  _TMR5HLD = 0x116
                    0x0118                  TMR5 = 0x118
                    0x0118                  _TMR5 = 0x118
                    0x011a                  PR4 = 0x11a
                    0x011a                  _PR4 = 0x11a
                    0x011c                  PR5 = 0x11c
                    0x011c                  _PR5 = 0x11c
                    0x011e                  T4CON = 0x11e
                    0x011e                  _T4CON = 0x11e
                    0x011e                  _T4CONbits = 0x11e
                    0x0120                  T5CON = 0x120
                    0x0120                  _T5CON = 0x120
                    0x0120                  _T5CONbits = 0x120
                    0x0140                  IC1CON1 = 0x140
                    0x0140                  _IC1CON1 = 0x140
                    0x0140                  _IC1CON1bits = 0x140
                    0x0142                  IC1CON2 = 0x142
                    0x0142                  _IC1CON2 = 0x142
                    0x0142                  _IC1CON2bits = 0x142
                    0x0144                  IC1BUF = 0x144
                    0x0144                  _IC1BUF = 0x144
                    0x0146                  IC1TMR = 0x146
                    0x0146                  _IC1TMR = 0x146
                    0x0148                  IC2CON1 = 0x148
                    0x0148                  _IC2CON1 = 0x148
                    0x0148                  _IC2CON1bits = 0x148
                    0x014a                  IC2CON2 = 0x14a
                    0x014a                  _IC2CON2 = 0x14a
                    0x014a                  _IC2CON2bits = 0x14a
                    0x014c                  IC2BUF = 0x14c
                    0x014c                  _IC2BUF = 0x14c
                    0x014e                  IC2TMR = 0x14e
                    0x014e                  _IC2TMR = 0x14e
                    0x0150                  IC3CON1 = 0x150
                    0x0150                  _IC3CON1 = 0x150
                    0x0150                  _IC3CON1bits = 0x150
                    0x0152                  IC3CON2 = 0x152
                    0x0152                  _IC3CON2 = 0x152
                    0x0152                  _IC3CON2bits = 0x152
                    0x0154                  IC3BUF = 0x154
                    0x0154                  _IC3BUF = 0x154
                    0x0156                  IC3TMR = 0x156
                    0x0156                  _IC3TMR = 0x156
                    0x0158                  IC4CON1 = 0x158
                    0x0158                  _IC4CON1 = 0x158
                    0x0158                  _IC4CON1bits = 0x158
                    0x015a                  IC4CON2 = 0x15a
                    0x015a                  _IC4CON2 = 0x15a
                    0x015a                  _IC4CON2bits = 0x15a
                    0x015c                  IC4BUF = 0x15c
                    0x015c                  _IC4BUF = 0x15c
                    0x015e                  IC4TMR = 0x15e
                    0x015e                  _IC4TMR = 0x15e
                    0x0160                  IC5CON1 = 0x160
                    0x0160                  _IC5CON1 = 0x160
                    0x0160                  _IC5CON1bits = 0x160
                    0x0162                  IC5CON2 = 0x162
                    0x0162                  _IC5CON2 = 0x162
                    0x0162                  _IC5CON2bits = 0x162
                    0x0164                  IC5BUF = 0x164
                    0x0164                  _IC5BUF = 0x164
                    0x0166                  IC5TMR = 0x166
                    0x0166                  _IC5TMR = 0x166
                    0x0168                  IC6CON1 = 0x168
                    0x0168                  _IC6CON1 = 0x168
                    0x0168                  _IC6CON1bits = 0x168
                    0x016a                  IC6CON2 = 0x16a
                    0x016a                  _IC6CON2 = 0x16a
                    0x016a                  _IC6CON2bits = 0x16a
                    0x016c                  IC6BUF = 0x16c
                    0x016c                  _IC6BUF = 0x16c
                    0x016e                  IC6TMR = 0x16e
                    0x016e                  _IC6TMR = 0x16e
                    0x0170                  IC7CON1 = 0x170
                    0x0170                  _IC7CON1 = 0x170
                    0x0170                  _IC7CON1bits = 0x170
                    0x0172                  IC7CON2 = 0x172
                    0x0172                  _IC7CON2 = 0x172
                    0x0172                  _IC7CON2bits = 0x172
                    0x0174                  IC7BUF = 0x174
                    0x0174                  _IC7BUF = 0x174
                    0x0176                  IC7TMR = 0x176
                    0x0176                  _IC7TMR = 0x176
                    0x0178                  IC8CON1 = 0x178
                    0x0178                  _IC8CON1 = 0x178
                    0x0178                  _IC8CON1bits = 0x178
                    0x017a                  IC8CON2 = 0x17a
                    0x017a                  _IC8CON2 = 0x17a
                    0x017a                  _IC8CON2bits = 0x17a
                    0x017c                  IC8BUF = 0x17c
                    0x017c                  _IC8BUF = 0x17c
                    0x017e                  IC8TMR = 0x17e
                    0x017e                  _IC8TMR = 0x17e
                    0x0180                  IC9CON1 = 0x180
                    0x0180                  _IC9CON1 = 0x180
                    0x0180                  _IC9CON1bits = 0x180
                    0x0182                  IC9CON2 = 0x182
                    0x0182                  _IC9CON2 = 0x182
                    0x0182                  _IC9CON2bits = 0x182
                    0x0184                  IC9BUF = 0x184
                    0x0184                  _IC9BUF = 0x184
                    0x0186                  IC9TMR = 0x186
                    0x0186                  _IC9TMR = 0x186
                    0x0190                  OC1CON1 = 0x190
                    0x0190                  _OC1CON1 = 0x190
                    0x0190                  _OC1CON1bits = 0x190
                    0x0192                  OC1CON2 = 0x192
                    0x0192                  _OC1CON2 = 0x192
                    0x0192                  _OC1CON2bits = 0x192
                    0x0194                  OC1RS = 0x194
                    0x0194                  _OC1RS = 0x194
                    0x0196                  OC1R = 0x196
                    0x0196                  _OC1R = 0x196
                    0x0198                  OC1TMR = 0x198
                    0x0198                  _OC1TMR = 0x198
                    0x019a                  OC2CON1 = 0x19a
                    0x019a                  _OC2CON1 = 0x19a
                    0x019a                  _OC2CON1bits = 0x19a
                    0x019c                  OC2CON2 = 0x19c
                    0x019c                  _OC2CON2 = 0x19c
                    0x019c                  _OC2CON2bits = 0x19c
                    0x019e                  OC2RS = 0x19e
                    0x019e                  _OC2RS = 0x19e
                    0x01a0                  OC2R = 0x1a0
                    0x01a0                  _OC2R = 0x1a0
                    0x01a2                  OC2TMR = 0x1a2
                    0x01a2                  _OC2TMR = 0x1a2
                    0x01a4                  OC3CON1 = 0x1a4
                    0x01a4                  _OC3CON1 = 0x1a4
                    0x01a4                  _OC3CON1bits = 0x1a4
                    0x01a6                  OC3CON2 = 0x1a6
                    0x01a6                  _OC3CON2 = 0x1a6
                    0x01a6                  _OC3CON2bits = 0x1a6
                    0x01a8                  OC3RS = 0x1a8
                    0x01a8                  _OC3RS = 0x1a8
                    0x01aa                  OC3R = 0x1aa
                    0x01aa                  _OC3R = 0x1aa
                    0x01ac                  OC3TMR = 0x1ac
                    0x01ac                  _OC3TMR = 0x1ac
                    0x01ae                  OC4CON1 = 0x1ae
                    0x01ae                  _OC4CON1 = 0x1ae
                    0x01ae                  _OC4CON1bits = 0x1ae
                    0x01b0                  OC4CON2 = 0x1b0
                    0x01b0                  _OC4CON2 = 0x1b0
                    0x01b0                  _OC4CON2bits = 0x1b0
                    0x01b2                  OC4RS = 0x1b2
                    0x01b2                  _OC4RS = 0x1b2
                    0x01b4                  OC4R = 0x1b4
                    0x01b4                  _OC4R = 0x1b4
                    0x01b6                  OC4TMR = 0x1b6
                    0x01b6                  _OC4TMR = 0x1b6
                    0x01b8                  OC5CON1 = 0x1b8
                    0x01b8                  _OC5CON1 = 0x1b8
                    0x01b8                  _OC5CON1bits = 0x1b8
                    0x01ba                  OC5CON2 = 0x1ba
                    0x01ba                  _OC5CON2 = 0x1ba
                    0x01ba                  _OC5CON2bits = 0x1ba
                    0x01bc                  OC5RS = 0x1bc
                    0x01bc                  _OC5RS = 0x1bc
                    0x01be                  OC5R = 0x1be
                    0x01be                  _OC5R = 0x1be
                    0x01c0                  OC5TMR = 0x1c0
                    0x01c0                  _OC5TMR = 0x1c0
                    0x01c2                  OC6CON1 = 0x1c2
                    0x01c2                  _OC6CON1 = 0x1c2
                    0x01c2                  _OC6CON1bits = 0x1c2
                    0x01c4                  OC6CON2 = 0x1c4
                    0x01c4                  _OC6CON2 = 0x1c4
                    0x01c4                  _OC6CON2bits = 0x1c4
                    0x01c6                  OC6RS = 0x1c6
                    0x01c6                  _OC6RS = 0x1c6
                    0x01c8                  OC6R = 0x1c8
                    0x01c8                  _OC6R = 0x1c8
                    0x01ca                  OC6TMR = 0x1ca
                    0x01ca                  _OC6TMR = 0x1ca
                    0x01cc                  OC7CON1 = 0x1cc
                    0x01cc                  _OC7CON1 = 0x1cc
                    0x01cc                  _OC7CON1bits = 0x1cc
                    0x01ce                  OC7CON2 = 0x1ce
                    0x01ce                  _OC7CON2 = 0x1ce
                    0x01ce                  _OC7CON2bits = 0x1ce
                    0x01d0                  OC7RS = 0x1d0
                    0x01d0                  _OC7RS = 0x1d0
                    0x01d2                  OC7R = 0x1d2
                    0x01d2                  _OC7R = 0x1d2
                    0x01d4                  OC7TMR = 0x1d4
                    0x01d4                  _OC7TMR = 0x1d4
                    0x01d6                  OC8CON1 = 0x1d6
                    0x01d6                  _OC8CON1 = 0x1d6
                    0x01d6                  _OC8CON1bits = 0x1d6
                    0x01d8                  OC8CON2 = 0x1d8
                    0x01d8                  _OC8CON2 = 0x1d8
                    0x01d8                  _OC8CON2bits = 0x1d8
                    0x01da                  OC8RS = 0x1da
                    0x01da                  _OC8RS = 0x1da
                    0x01dc                  OC8R = 0x1dc
                    0x01dc                  _OC8R = 0x1dc
                    0x01de                  OC8TMR = 0x1de
                    0x01de                  _OC8TMR = 0x1de
                    0x01e0                  OC9CON1 = 0x1e0
                    0x01e0                  _OC9CON1 = 0x1e0
                    0x01e0                  _OC9CON1bits = 0x1e0
                    0x01e2                  OC9CON2 = 0x1e2
                    0x01e2                  _OC9CON2 = 0x1e2
                    0x01e2                  _OC9CON2bits = 0x1e2
                    0x01e4                  OC9RS = 0x1e4
                    0x01e4                  _OC9RS = 0x1e4
                    0x01e6                  OC9R = 0x1e6
                    0x01e6                  _OC9R = 0x1e6
                    0x01e8                  OC9TMR = 0x1e8
                    0x01e8                  _OC9TMR = 0x1e8
                    0x0200                  I2C1RCV = 0x200
                    0x0200                  _I2C1RCV = 0x200
                    0x0202                  I2C1TRN = 0x202
                    0x0202                  _I2C1TRN = 0x202
                    0x0204                  I2C1BRG = 0x204
                    0x0204                  _I2C1BRG = 0x204
                    0x0206                  I2C1CON = 0x206
                    0x0206                  _I2C1CON = 0x206
                    0x0206                  _I2C1CONbits = 0x206
                    0x0208                  I2C1STAT = 0x208
                    0x0208                  _I2C1STAT = 0x208
                    0x0208                  _I2C1STATbits = 0x208
                    0x020a                  I2C1ADD = 0x20a
                    0x020a                  _I2C1ADD = 0x20a
                    0x020c                  I2C1MSK = 0x20c
                    0x020c                  _I2C1MSK = 0x20c
                    0x0210                  I2C2RCV = 0x210
                    0x0210                  _I2C2RCV = 0x210
                    0x0212                  I2C2TRN = 0x212
                    0x0212                  _I2C2TRN = 0x212
                    0x0214                  I2C2BRG = 0x214
                    0x0214                  _I2C2BRG = 0x214
                    0x0216                  I2C2CON = 0x216
                    0x0216                  _I2C2CON = 0x216
                    0x0216                  _I2C2CONbits = 0x216
                    0x0218                  I2C2STAT = 0x218
                    0x0218                  _I2C2STAT = 0x218
                    0x0218                  _I2C2STATbits = 0x218
                    0x021a                  I2C2ADD = 0x21a
                    0x021a                  _I2C2ADD = 0x21a
                    0x021c                  I2C2MSK = 0x21c
                    0x021c                  _I2C2MSK = 0x21c
                    0x0220                  U1MODE = 0x220
                    0x0220                  _U1MODE = 0x220
                    0x0220                  _U1MODEbits = 0x220
                    0x0222                  U1STA = 0x222
                    0x0222                  _U1STA = 0x222
                    0x0222                  _U1STAbits = 0x222
                    0x0224                  U1TXREG = 0x224
                    0x0224                  _U1TXREG = 0x224
                    0x0226                  U1RXREG = 0x226
                    0x0226                  _U1RXREG = 0x226
                    0x0228                  U1BRG = 0x228
                    0x0228                  _U1BRG = 0x228
                    0x0230                  U2MODE = 0x230
                    0x0230                  _U2MODE = 0x230
                    0x0230                  _U2MODEbits = 0x230
                    0x0232                  U2STA = 0x232
                    0x0232                  _U2STA = 0x232
                    0x0232                  _U2STAbits = 0x232
                    0x0234                  U2TXREG = 0x234
                    0x0234                  _U2TXREG = 0x234
                    0x0236                  U2RXREG = 0x236
                    0x0236                  _U2RXREG = 0x236
                    0x0238                  U2BRG = 0x238
                    0x0238                  _U2BRG = 0x238
                    0x0240                  SPI1STAT = 0x240
                    0x0240                  _SPI1STAT = 0x240
                    0x0240                  _SPI1STATbits = 0x240
                    0x0242                  SPI1CON1 = 0x242
                    0x0242                  _SPI1CON1 = 0x242
                    0x0242                  _SPI1CON1bits = 0x242
                    0x0244                  SPI1CON2 = 0x244
                    0x0244                  _SPI1CON2 = 0x244
                    0x0244                  _SPI1CON2bits = 0x244
                    0x0248                  SPI1BUF = 0x248
                    0x0248                  _SPI1BUF = 0x248
                    0x0250                  U3MODE = 0x250
                    0x0250                  _U3MODE = 0x250
                    0x0250                  _U3MODEbits = 0x250
                    0x0252                  U3STA = 0x252
                    0x0252                  _U3STA = 0x252
                    0x0252                  _U3STAbits = 0x252
                    0x0254                  U3TXREG = 0x254
                    0x0254                  _U3TXREG = 0x254
                    0x0256                  U3RXREG = 0x256
                    0x0256                  _U3RXREG = 0x256
                    0x0258                  U3BRG = 0x258
                    0x0258                  _U3BRG = 0x258
                    0x0260                  SPI2STAT = 0x260
                    0x0260                  _SPI2STAT = 0x260
                    0x0260                  _SPI2STATbits = 0x260
                    0x0262                  SPI2CON1 = 0x262
                    0x0262                  _SPI2CON1 = 0x262
                    0x0262                  _SPI2CON1bits = 0x262
                    0x0264                  SPI2CON2 = 0x264
                    0x0264                  _SPI2CON2 = 0x264
                    0x0264                  _SPI2CON2bits = 0x264
                    0x0268                  SPI2BUF = 0x268
                    0x0268                  _SPI2BUF = 0x268
                    0x0270                  I2C3RCV = 0x270
                    0x0270                  _I2C3RCV = 0x270
                    0x0272                  I2C3TRN = 0x272
                    0x0272                  _I2C3TRN = 0x272
                    0x0274                  I2C3BRG = 0x274
                    0x0274                  _I2C3BRG = 0x274
                    0x0276                  I2C3CON = 0x276
                    0x0276                  _I2C3CON = 0x276
                    0x0276                  _I2C3CONbits = 0x276
                    0x0278                  I2C3STAT = 0x278
                    0x0278                  _I2C3STAT = 0x278
                    0x0278                  _I2C3STATbits = 0x278
                    0x027a                  I2C3ADD = 0x27a
                    0x027a                  _I2C3ADD = 0x27a
                    0x027c                  I2C3MSK = 0x27c
                    0x027c                  _I2C3MSK = 0x27c
                    0x0280                  SPI3STAT = 0x280
                    0x0280                  _SPI3STAT = 0x280
                    0x0280                  _SPI3STATbits = 0x280
                    0x0282                  SPI3CON1 = 0x282
                    0x0282                  _SPI3CON1 = 0x282
                    0x0282                  _SPI3CON1bits = 0x282
                    0x0284                  SPI3CON2 = 0x284
                    0x0284                  _SPI3CON2 = 0x284
                    0x0284                  _SPI3CON2bits = 0x284
                    0x0288                  SPI3BUF = 0x288
                    0x0288                  _SPI3BUF = 0x288
                    0x02b0                  U4MODE = 0x2b0
                    0x02b0                  _U4MODE = 0x2b0
                    0x02b0                  _U4MODEbits = 0x2b0
                    0x02b2                  U4STA = 0x2b2
                    0x02b2                  _U4STA = 0x2b2
                    0x02b2                  _U4STAbits = 0x2b2
                    0x02b4                  U4TXREG = 0x2b4
                    0x02b4                  _U4TXREG = 0x2b4
                    0x02b6                  U4RXREG = 0x2b6
                    0x02b6                  _U4RXREG = 0x2b6
                    0x02b8                  U4BRG = 0x2b8
                    0x02b8                  _U4BRG = 0x2b8
                    0x02c8                  TRISB = 0x2c8
                    0x02c8                  _TRISB = 0x2c8
                    0x02c8                  _TRISBbits = 0x2c8
                    0x02ca                  PORTB = 0x2ca
                    0x02ca                  _PORTB = 0x2ca
                    0x02ca                  _PORTBbits = 0x2ca
                    0x02cc                  LATB = 0x2cc
                    0x02cc                  _LATB = 0x2cc
                    0x02cc                  _LATBbits = 0x2cc
                    0x02ce                  ODCB = 0x2ce
                    0x02ce                  _ODCB = 0x2ce
                    0x02ce                  _ODCBbits = 0x2ce
                    0x02d0                  TRISC = 0x2d0
                    0x02d0                  _TRISC = 0x2d0
                    0x02d0                  _TRISCbits = 0x2d0
                    0x02d2                  PORTC = 0x2d2
                    0x02d2                  _PORTC = 0x2d2
                    0x02d2                  _PORTCbits = 0x2d2
                    0x02d4                  LATC = 0x2d4
                    0x02d4                  _LATC = 0x2d4
                    0x02d4                  _LATCbits = 0x2d4
                    0x02d6                  ODCC = 0x2d6
                    0x02d6                  _ODCC = 0x2d6
                    0x02d6                  _ODCCbits = 0x2d6
                    0x02d8                  TRISD = 0x2d8
                    0x02d8                  _TRISD = 0x2d8
                    0x02d8                  _TRISDbits = 0x2d8
                    0x02da                  PORTD = 0x2da
                    0x02da                  _PORTD = 0x2da
                    0x02da                  _PORTDbits = 0x2da
                    0x02dc                  LATD = 0x2dc
                    0x02dc                  _LATD = 0x2dc
                    0x02dc                  _LATDbits = 0x2dc
                    0x02de                  ODCD = 0x2de
                    0x02de                  _ODCD = 0x2de
                    0x02de                  _ODCDbits = 0x2de
                    0x02e0                  TRISE = 0x2e0
                    0x02e0                  _TRISE = 0x2e0
                    0x02e0                  _TRISEbits = 0x2e0
                    0x02e2                  PORTE = 0x2e2
                    0x02e2                  _PORTE = 0x2e2
                    0x02e2                  _PORTEbits = 0x2e2
                    0x02e4                  LATE = 0x2e4
                    0x02e4                  _LATE = 0x2e4
                    0x02e4                  _LATEbits = 0x2e4
                    0x02e6                  ODCE = 0x2e6
                    0x02e6                  _ODCE = 0x2e6
                    0x02e6                  _ODCEbits = 0x2e6
                    0x02e8                  TRISF = 0x2e8
                    0x02e8                  _TRISF = 0x2e8
                    0x02e8                  _TRISFbits = 0x2e8
                    0x02ea                  PORTF = 0x2ea
                    0x02ea                  _PORTF = 0x2ea
                    0x02ea                  _PORTFbits = 0x2ea
                    0x02ec                  LATF = 0x2ec
                    0x02ec                  _LATF = 0x2ec
                    0x02ec                  _LATFbits = 0x2ec
                    0x02ee                  ODCF = 0x2ee
                    0x02ee                  _ODCF = 0x2ee
                    0x02ee                  _ODCFbits = 0x2ee
                    0x02f0                  TRISG = 0x2f0
                    0x02f0                  _TRISG = 0x2f0
                    0x02f0                  _TRISGbits = 0x2f0
                    0x02f2                  PORTG = 0x2f2
                    0x02f2                  _PORTG = 0x2f2
                    0x02f2                  _PORTGbits = 0x2f2
                    0x02f4                  LATG = 0x2f4
                    0x02f4                  _LATG = 0x2f4
                    0x02f4                  _LATGbits = 0x2f4
                    0x02f6                  ODCG = 0x2f6
                    0x02f6                  _ODCG = 0x2f6
                    0x02f6                  _ODCGbits = 0x2f6
                    0x02fc                  PADCFG1 = 0x2fc
                    0x02fc                  _PADCFG1 = 0x2fc
                    0x02fc                  _PADCFG1bits = 0x2fc
                    0x0300                  ADC1BUF0 = 0x300
                    0x0300                  _ADC1BUF0 = 0x300
                    0x0302                  ADC1BUF1 = 0x302
                    0x0302                  _ADC1BUF1 = 0x302
                    0x0304                  ADC1BUF2 = 0x304
                    0x0304                  _ADC1BUF2 = 0x304
                    0x0306                  ADC1BUF3 = 0x306
                    0x0306                  _ADC1BUF3 = 0x306
                    0x0308                  ADC1BUF4 = 0x308
                    0x0308                  _ADC1BUF4 = 0x308
                    0x030a                  ADC1BUF5 = 0x30a
                    0x030a                  _ADC1BUF5 = 0x30a
                    0x030c                  ADC1BUF6 = 0x30c
                    0x030c                  _ADC1BUF6 = 0x30c
                    0x030e                  ADC1BUF7 = 0x30e
                    0x030e                  _ADC1BUF7 = 0x30e
                    0x0310                  ADC1BUF8 = 0x310
                    0x0310                  _ADC1BUF8 = 0x310
                    0x0312                  ADC1BUF9 = 0x312
                    0x0312                  _ADC1BUF9 = 0x312
                    0x0314                  ADC1BUFA = 0x314
                    0x0314                  _ADC1BUFA = 0x314
                    0x0316                  ADC1BUFB = 0x316
                    0x0316                  _ADC1BUFB = 0x316
                    0x0318                  ADC1BUFC = 0x318
                    0x0318                  _ADC1BUFC = 0x318
                    0x031a                  ADC1BUFD = 0x31a
                    0x031a                  _ADC1BUFD = 0x31a
                    0x031c                  ADC1BUFE = 0x31c
                    0x031c                  _ADC1BUFE = 0x31c
                    0x031e                  ADC1BUFF = 0x31e
                    0x031e                  _ADC1BUFF = 0x31e
                    0x0320                  AD1CON1 = 0x320
                    0x0320                  _AD1CON1 = 0x320
                    0x0320                  _AD1CON1bits = 0x320
                    0x0322                  AD1CON2 = 0x322
                    0x0322                  _AD1CON2 = 0x322
                    0x0322                  _AD1CON2bits = 0x322
                    0x0324                  AD1CON3 = 0x324
                    0x0324                  _AD1CON3 = 0x324
                    0x0324                  _AD1CON3bits = 0x324
                    0x0328                  AD1CHS = 0x328
                    0x0328                  _AD1CHS = 0x328
                    0x0328                  _AD1CHSbits = 0x328
                    0x0328                  AD1CHS0 = 0x328
                    0x0328                  _AD1CHS0 = 0x328
                    0x0328                  _AD1CHS0bits = 0x328
                    0x032a                  AD1PCFGH = 0x32a
                    0x032a                  _AD1PCFGH = 0x32a
                    0x032a                  _AD1PCFGHbits = 0x32a
                    0x032c                  AD1PCFG = 0x32c
                    0x032c                  _AD1PCFG = 0x32c
                    0x032c                  _AD1PCFGbits = 0x32c
                    0x032c                  AD1PCFGL = 0x32c
                    0x032c                  _AD1PCFGL = 0x32c
                    0x032c                  _AD1PCFGLbits = 0x32c
                    0x0330                  AD1CSSL = 0x330
                    0x0330                  _AD1CSSL = 0x330
                    0x0330                  _AD1CSSLbits = 0x330
                    0x0332                  AD1CSSH = 0x332
                    0x0332                  _AD1CSSH = 0x332
                    0x0332                  _AD1CSSHbits = 0x332
                    0x033c                  CTMUCON = 0x33c
                    0x033c                  _CTMUCON = 0x33c
                    0x033c                  _CTMUCONbits = 0x33c
                    0x033e                  CTMUICON = 0x33e
                    0x033e                  _CTMUICON = 0x33e
                    0x033e                  _CTMUICONbits = 0x33e
                    0x0480                  U1OTGIR = 0x480
                    0x0480                  _U1OTGIR = 0x480
                    0x0480                  _U1OTGIRbits = 0x480
                    0x0482                  U1OTGIE = 0x482
                    0x0482                  _U1OTGIE = 0x482
                    0x0482                  _U1OTGIEbits = 0x482
                    0x0484                  U1OTGSTAT = 0x484
                    0x0484                  _U1OTGSTAT = 0x484
                    0x0484                  _U1OTGSTATbits = 0x484
                    0x0486                  U1OTGCON = 0x486
                    0x0486                  _U1OTGCON = 0x486
                    0x0486                  _U1OTGCONbits = 0x486
                    0x0488                  U1PWRC = 0x488
                    0x0488                  _U1PWRC = 0x488
                    0x0488                  _U1PWRCbits = 0x488
                    0x048a                  U1IR = 0x48a
                    0x048a                  _U1IR = 0x48a
                    0x048a                  _U1IRbits = 0x48a
                    0x048c                  U1IE = 0x48c
                    0x048c                  _U1IE = 0x48c
                    0x048c                  _U1IEbits = 0x48c
                    0x048e                  U1EIR = 0x48e
                    0x048e                  _U1EIR = 0x48e
                    0x048e                  _U1EIRbits = 0x48e
                    0x0490                  U1EIE = 0x490
                    0x0490                  _U1EIE = 0x490
                    0x0490                  _U1EIEbits = 0x490
                    0x0492                  U1STAT = 0x492
                    0x0492                  _U1STAT = 0x492
                    0x0492                  _U1STATbits = 0x492
                    0x0494                  U1CON = 0x494
                    0x0494                  _U1CON = 0x494
                    0x0494                  _U1CONbits = 0x494
                    0x0496                  U1ADDR = 0x496
                    0x0496                  _U1ADDR = 0x496
                    0x0496                  _U1ADDRbits = 0x496
                    0x0498                  U1BDTP1 = 0x498
                    0x0498                  _U1BDTP1 = 0x498
                    0x0498                  _U1BDTP1bits = 0x498
                    0x049a                  U1FRML = 0x49a
                    0x049a                  _U1FRML = 0x49a
                    0x049a                  _U1FRMLbits = 0x49a
                    0x049c                  U1FRMH = 0x49c
                    0x049c                  _U1FRMH = 0x49c
                    0x049c                  _U1FRMHbits = 0x49c
                    0x049e                  U1TOK = 0x49e
                    0x049e                  _U1TOK = 0x49e
                    0x049e                  _U1TOKbits = 0x49e
                    0x04a0                  U1SOF = 0x4a0
                    0x04a0                  _U1SOF = 0x4a0
                    0x04a0                  _U1SOFbits = 0x4a0
                    0x04a6                  U1CNFG1 = 0x4a6
                    0x04a6                  _U1CNFG1 = 0x4a6
                    0x04a6                  _U1CNFG1bits = 0x4a6
                    0x04a8                  U1CNFG2 = 0x4a8
                    0x04a8                  _U1CNFG2 = 0x4a8
                    0x04a8                  _U1CNFG2bits = 0x4a8
                    0x04aa                  U1EP0 = 0x4aa
                    0x04aa                  _U1EP0 = 0x4aa
                    0x04aa                  _U1EP0bits = 0x4aa
                    0x04ac                  U1EP1 = 0x4ac
                    0x04ac                  _U1EP1 = 0x4ac
                    0x04ac                  _U1EP1bits = 0x4ac
                    0x04ae                  U1EP2 = 0x4ae
                    0x04ae                  _U1EP2 = 0x4ae
                    0x04ae                  _U1EP2bits = 0x4ae
                    0x04b0                  U1EP3 = 0x4b0
                    0x04b0                  _U1EP3 = 0x4b0
                    0x04b0                  _U1EP3bits = 0x4b0
                    0x04b2                  U1EP4 = 0x4b2
                    0x04b2                  _U1EP4 = 0x4b2
                    0x04b2                  _U1EP4bits = 0x4b2
                    0x04b4                  U1EP5 = 0x4b4
                    0x04b4                  _U1EP5 = 0x4b4
                    0x04b4                  _U1EP5bits = 0x4b4
                    0x04b6                  U1EP6 = 0x4b6
                    0x04b6                  _U1EP6 = 0x4b6
                    0x04b6                  _U1EP6bits = 0x4b6
                    0x04b8                  U1EP7 = 0x4b8
                    0x04b8                  _U1EP7 = 0x4b8
                    0x04b8                  _U1EP7bits = 0x4b8
                    0x04ba                  U1EP8 = 0x4ba
                    0x04ba                  _U1EP8 = 0x4ba
                    0x04ba                  _U1EP8bits = 0x4ba
                    0x04bc                  U1EP9 = 0x4bc
                    0x04bc                  _U1EP9 = 0x4bc
                    0x04bc                  _U1EP9bits = 0x4bc
                    0x04be                  U1EP10 = 0x4be
                    0x04be                  _U1EP10 = 0x4be
                    0x04be                  _U1EP10bits = 0x4be
                    0x04c0                  U1EP11 = 0x4c0
                    0x04c0                  _U1EP11 = 0x4c0
                    0x04c0                  _U1EP11bits = 0x4c0
                    0x04c2                  U1EP12 = 0x4c2
                    0x04c2                  _U1EP12 = 0x4c2
                    0x04c2                  _U1EP12bits = 0x4c2
                    0x04c4                  U1EP13 = 0x4c4
                    0x04c4                  _U1EP13 = 0x4c4
                    0x04c4                  _U1EP13bits = 0x4c4
                    0x04c6                  U1EP14 = 0x4c6
                    0x04c6                  _U1EP14 = 0x4c6
                    0x04c6                  _U1EP14bits = 0x4c6
                    0x04c8                  U1EP15 = 0x4c8
                    0x04c8                  _U1EP15 = 0x4c8
                    0x04c8                  _U1EP15bits = 0x4c8
                    0x04cc                  U1PWMRRS = 0x4cc
                    0x04cc                  _U1PWMRRS = 0x4cc
                    0x04cc                  _U1PWMRRSbits = 0x4cc
                    0x04ce                  U1PWMCON = 0x4ce
                    0x04ce                  _U1PWMCON = 0x4ce
                    0x04ce                  _U1PWMCONbits = 0x4ce
                    0x0600                  PMCON = 0x600
                    0x0600                  _PMCON = 0x600
                    0x0600                  _PMCONbits = 0x600
                    0x0602                  PMMODE = 0x602
                    0x0602                  _PMMODE = 0x602
                    0x0602                  _PMMODEbits = 0x602
                    0x0604                  PMADDR = 0x604
                    0x0604                  _PMADDR = 0x604
                    0x0604                  _PMADDRbits = 0x604
                    0x0604                  PMDOUT1 = 0x604
                    0x0604                  _PMDOUT1 = 0x604
                    0x0604                  _PMDOUT1bits = 0x604
                    0x0606                  PMDOUT2 = 0x606
                    0x0606                  _PMDOUT2 = 0x606
                    0x0608                  PMDIN1 = 0x608
                    0x0608                  _PMDIN1 = 0x608
                    0x060a                  PMDIN2 = 0x60a
                    0x060a                  _PMDIN2 = 0x60a
                    0x060c                  PMAEN = 0x60c
                    0x060c                  _PMAEN = 0x60c
                    0x060c                  _PMAENbits = 0x60c
                    0x060e                  PMSTAT = 0x60e
                    0x060e                  _PMSTAT = 0x60e
                    0x060e                  _PMSTATbits = 0x60e
                    0x0620                  ALRMVAL = 0x620
                    0x0620                  _ALRMVAL = 0x620
                    0x0622                  ALCFGRPT = 0x622
                    0x0622                  _ALCFGRPT = 0x622
                    0x0622                  _ALCFGRPTbits = 0x622
                    0x0624                  RTCVAL = 0x624
                    0x0624                  _RTCVAL = 0x624
                    0x0626                  RCFGCAL = 0x626
                    0x0626                  _RCFGCAL = 0x626
                    0x0626                  _RCFGCALbits = 0x626
                    0x0630                  CMSTAT = 0x630
                    0x0630                  _CMSTAT = 0x630
                    0x0630                  _CMSTATbits = 0x630
                    0x0632                  CVRCON = 0x632
                    0x0632                  _CVRCON = 0x632
                    0x0632                  _CVRCONbits = 0x632
                    0x0634                  CM1CON = 0x634
                    0x0634                  _CM1CON = 0x634
                    0x0634                  _CM1CONbits = 0x634
                    0x0636                  CM2CON = 0x636
                    0x0636                  _CM2CON = 0x636
                    0x0636                  _CM2CONbits = 0x636
                    0x0638                  CM3CON = 0x638
                    0x0638                  _CM3CON = 0x638
                    0x0638                  _CM3CONbits = 0x638
                    0x0640                  CRCCON = 0x640
                    0x0640                  _CRCCON = 0x640
                    0x0640                  _CRCCONbits = 0x640
                    0x0642                  CRCXOR = 0x642
                    0x0642                  _CRCXOR = 0x642
                    0x0642                  _CRCXORbits = 0x642
                    0x0644                  CRCDAT = 0x644
                    0x0644                  _CRCDAT = 0x644
                    0x0646                  CRCWDAT = 0x646
                    0x0646                  _CRCWDAT = 0x646
                    0x0680                  RPINR0 = 0x680
                    0x0680                  _RPINR0 = 0x680
                    0x0680                  _RPINR0bits = 0x680
                    0x0682                  RPINR1 = 0x682
                    0x0682                  _RPINR1 = 0x682
                    0x0682                  _RPINR1bits = 0x682
                    0x0684                  RPINR2 = 0x684
                    0x0684                  _RPINR2 = 0x684
                    0x0684                  _RPINR2bits = 0x684
                    0x0686                  RPINR3 = 0x686
                    0x0686                  _RPINR3 = 0x686
                    0x0686                  _RPINR3bits = 0x686
                    0x0688                  RPINR4 = 0x688
                    0x0688                  _RPINR4 = 0x688
                    0x0688                  _RPINR4bits = 0x688
                    0x068e                  RPINR7 = 0x68e
                    0x068e                  _RPINR7 = 0x68e
                    0x068e                  _RPINR7bits = 0x68e
                    0x0690                  RPINR8 = 0x690
                    0x0690                  _RPINR8 = 0x690
                    0x0690                  _RPINR8bits = 0x690
                    0x0692                  RPINR9 = 0x692
                    0x0692                  _RPINR9 = 0x692
                    0x0692                  _RPINR9bits = 0x692
                    0x0694                  RPINR10 = 0x694
                    0x0694                  _RPINR10 = 0x694
                    0x0694                  _RPINR10bits = 0x694
                    0x0696                  RPINR11 = 0x696
                    0x0696                  _RPINR11 = 0x696
                    0x0696                  _RPINR11bits = 0x696
                    0x069e                  RPINR15 = 0x69e
                    0x069e                  _RPINR15 = 0x69e
                    0x069e                  _RPINR15bits = 0x69e
                    0x06a2                  RPINR17 = 0x6a2
                    0x06a2                  _RPINR17 = 0x6a2
                    0x06a2                  _RPINR17bits = 0x6a2
                    0x06a4                  RPINR18 = 0x6a4
                    0x06a4                  _RPINR18 = 0x6a4
                    0x06a4                  _RPINR18bits = 0x6a4
                    0x06a6                  RPINR19 = 0x6a6
                    0x06a6                  _RPINR19 = 0x6a6
                    0x06a6                  _RPINR19bits = 0x6a6
                    0x06a8                  RPINR20 = 0x6a8
                    0x06a8                  _RPINR20 = 0x6a8
                    0x06a8                  _RPINR20bits = 0x6a8
                    0x06aa                  RPINR21 = 0x6aa
                    0x06aa                  _RPINR21 = 0x6aa
                    0x06aa                  _RPINR21bits = 0x6aa
                    0x06ac                  RPINR22 = 0x6ac
                    0x06ac                  _RPINR22 = 0x6ac
                    0x06ac                  _RPINR22bits = 0x6ac
                    0x06ae                  RPINR23 = 0x6ae
                    0x06ae                  _RPINR23 = 0x6ae
                    0x06ae                  _RPINR23bits = 0x6ae
                    0x06b6                  RPINR27 = 0x6b6
                    0x06b6                  _RPINR27 = 0x6b6
                    0x06b6                  _RPINR27bits = 0x6b6
                    0x06b8                  RPINR28 = 0x6b8
                    0x06b8                  _RPINR28 = 0x6b8
                    0x06b8                  _RPINR28bits = 0x6b8
                    0x06ba                  RPINR29 = 0x6ba
                    0x06ba                  _RPINR29 = 0x6ba
                    0x06ba                  _RPINR29bits = 0x6ba
                    0x06c0                  RPOR0 = 0x6c0
                    0x06c0                  _RPOR0 = 0x6c0
                    0x06c0                  _RPOR0bits = 0x6c0
                    0x06c2                  RPOR1 = 0x6c2
                    0x06c2                  _RPOR1 = 0x6c2
                    0x06c2                  _RPOR1bits = 0x6c2
                    0x06c4                  RPOR2 = 0x6c4
                    0x06c4                  _RPOR2 = 0x6c4
                    0x06c4                  _RPOR2bits = 0x6c4
                    0x06c6                  RPOR3 = 0x6c6
                    0x06c6                  _RPOR3 = 0x6c6
                    0x06c6                  _RPOR3bits = 0x6c6
                    0x06c8                  RPOR4 = 0x6c8
                    0x06c8                  _RPOR4 = 0x6c8
                    0x06c8                  _RPOR4bits = 0x6c8
                    0x06ca                  RPOR5 = 0x6ca
                    0x06ca                  _RPOR5 = 0x6ca
                    0x06ca                  _RPOR5bits = 0x6ca
                    0x06cc                  RPOR6 = 0x6cc
                    0x06cc                  _RPOR6 = 0x6cc
                    0x06cc                  _RPOR6bits = 0x6cc
                    0x06ce                  RPOR7 = 0x6ce
                    0x06ce                  _RPOR7 = 0x6ce
                    0x06ce                  _RPOR7bits = 0x6ce
                    0x06d0                  RPOR8 = 0x6d0
                    0x06d0                  _RPOR8 = 0x6d0
                    0x06d0                  _RPOR8bits = 0x6d0
                    0x06d2                  RPOR9 = 0x6d2
                    0x06d2                  _RPOR9 = 0x6d2
                    0x06d2                  _RPOR9bits = 0x6d2
                    0x06d4                  RPOR10 = 0x6d4
                    0x06d4                  _RPOR10 = 0x6d4
                    0x06d4                  _RPOR10bits = 0x6d4
                    0x06d6                  RPOR11 = 0x6d6
                    0x06d6                  _RPOR11 = 0x6d6
                    0x06d6                  _RPOR11bits = 0x6d6
                    0x06d8                  RPOR12 = 0x6d8
                    0x06d8                  _RPOR12 = 0x6d8
                    0x06d8                  _RPOR12bits = 0x6d8
                    0x06da                  RPOR13 = 0x6da
                    0x06da                  _RPOR13 = 0x6da
                    0x06da                  _RPOR13bits = 0x6da
                    0x06dc                  RPOR14 = 0x6dc
                    0x06dc                  _RPOR14 = 0x6dc
                    0x06dc                  _RPOR14bits = 0x6dc
                    0x06de                  RPOR15 = 0x6de
                    0x06de                  _RPOR15 = 0x6de
                    0x06de                  _RPOR15bits = 0x6de
                    0x0740                  RCON = 0x740
                    0x0740                  _RCON = 0x740
                    0x0740                  _RCONbits = 0x740
                    0x0742                  OSCCON = 0x742
                    0x0742                  _OSCCON = 0x742
                    0x0742                  _OSCCONbits = 0x742
                    0x0742                  OSCCONL = 0x742
                    0x0742                  _OSCCONL = 0x742
                    0x0743                  OSCCONH = 0x743
                    0x0743                  _OSCCONH = 0x743
                    0x0744                  CLKDIV = 0x744
                    0x0744                  _CLKDIV = 0x744
                    0x0744                  _CLKDIVbits = 0x744
                    0x0748                  OSCTUN = 0x748
                    0x0748                  _OSCTUN = 0x748
                    0x0748                  _OSCTUNbits = 0x748
                    0x074e                  REFOCON = 0x74e
                    0x074e                  _REFOCON = 0x74e
                    0x074e                  _REFOCONbits = 0x74e
                    0x0760                  NVMCON = 0x760
                    0x0760                  _NVMCON = 0x760
                    0x0760                  _NVMCONbits = 0x760
                    0x0766                  NVMKEY = 0x766
                    0x0766                  _NVMKEY = 0x766
                    0x0770                  PMD1 = 0x770
                    0x0770                  _PMD1 = 0x770
                    0x0770                  _PMD1bits = 0x770
                    0x0772                  PMD2 = 0x772
                    0x0772                  _PMD2 = 0x772
                    0x0772                  _PMD2bits = 0x772
                    0x0774                  PMD3 = 0x774
                    0x0774                  _PMD3 = 0x774
                    0x0774                  _PMD3bits = 0x774
                    0x0776                  PMD4 = 0x776
                    0x0776                  _PMD4 = 0x776
                    0x0776                  _PMD4bits = 0x776
                    0x0778                  PMD5 = 0x778
                    0x0778                  _PMD5 = 0x778
                    0x0778                  _PMD5bits = 0x778
                    0x077a                  PMD6 = 0x77a
                    0x077a                  _PMD6 = 0x77a
                    0x077a                  _PMD6bits = 0x77a
                    0x0144                  IC1 = 0x144
                    0x0144                  _IC1 = 0x144
                    0x014c                  IC2 = 0x14c
                    0x014c                  _IC2 = 0x14c
                    0x0154                  IC3 = 0x154
                    0x0154                  _IC3 = 0x154
                    0x015c                  IC4 = 0x15c
                    0x015c                  _IC4 = 0x15c
                    0x0164                  IC5 = 0x164
                    0x0164                  _IC5 = 0x164
                    0x016c                  IC6 = 0x16c
                    0x016c                  _IC6 = 0x16c
                    0x0174                  IC7 = 0x174
                    0x0174                  _IC7 = 0x174
                    0x017c                  IC8 = 0x17c
                    0x017c                  _IC8 = 0x17c
                    0x0194                  OC1 = 0x194
                    0x0194                  _OC1 = 0x194
                    0x019e                  OC2 = 0x19e
                    0x019e                  _OC2 = 0x19e
                    0x01a8                  OC3 = 0x1a8
                    0x01a8                  _OC3 = 0x1a8
                    0x01b2                  OC4 = 0x1b2
                    0x01b2                  _OC4 = 0x1b2
                    0x01bc                  OC5 = 0x1bc
                    0x01bc                  _OC5 = 0x1bc
                    0x01c6                  OC6 = 0x1c6
                    0x01c6                  _OC6 = 0x1c6
                    0x01d0                  OC7 = 0x1d0
                    0x01d0                  _OC7 = 0x1d0
                    0x01da                  OC8 = 0x1da
                    0x01da                  _OC8 = 0x1da
                    0x0240                  SPI1 = 0x240
                    0x0240                  _SPI1 = 0x240
                    0x0260                  SPI2 = 0x260
                    0x0260                  _SPI2 = 0x260
                    0x0220                  UART1 = 0x220
                    0x0220                  _UART1 = 0x220
                    0x0230                  UART2 = 0x230
                    0x0230                  _UART2 = 0x230
START GROUP
LOAD c:/apps/microchip/xc16/v1.26/bin/bin/../../lib\liblega-pic30-elf.a
LOAD c:/apps/microchip/xc16/v1.26/bin/bin/../../lib\libfastm-elf.a
LOAD c:/apps/microchip/xc16/v1.26/bin/bin/../../lib\liblega-c-elf.a
END GROUP
OUTPUT(dist/default/production/Troop209-ames-nesi-02-26__Norm_.production.elf elf32-pic30)
LOAD jump_table
LOAD default_isr
LOAD heap
LOAD data_init
LOAD shared_data_init

.debug_pubtypes
                  0x000450       0x28c5
 .debug_pubtypes
                  0x000450        0x144 build/default/production/_ext/1639979382/button.o
 .debug_pubtypes
                  0x000594        0x179 build/default/production/_ext/1639979382/camera.o
 .debug_pubtypes
                  0x00070d         0xd4 build/default/production/_ext/1639979382/co2.o
 .debug_pubtypes
                  0x0007e1         0x5c build/default/production/_ext/1639979382/datalog.o
 .debug_pubtypes
                  0x00083d         0xb7 build/default/production/_ext/1639979382/file.o
 .debug_pubtypes
                  0x0008f4         0x98 build/default/production/_ext/1639979382/led.o
 .debug_pubtypes
                  0x00098c        0x10d build/default/production/_ext/1639979382/nesi.o
 .debug_pubtypes
                  0x000a99         0xaa build/default/production/_ext/1639979382/powerDriver.o
 .debug_pubtypes
                  0x000b43         0x8c build/default/production/_ext/1639979382/resistiveSensors.o
 .debug_pubtypes
                  0x000bcf        0x111 build/default/production/_ext/1639979382/sdcard.o
 .debug_pubtypes
                  0x000ce0        0x178 build/default/production/_ext/1639979382/system.o
 .debug_pubtypes
                  0x000e58        0x1a1 build/default/production/_ext/1639979382/usb.o
 .debug_pubtypes
                  0x000ff9        0x181 build/default/production/_ext/1639979382/dateTime.o
 .debug_pubtypes
                  0x00117a        0x145 build/default/production/_ext/1639979382/uart1.o
 .debug_pubtypes
                  0x0012bf        0x12a build/default/production/_ext/1639979382/uart2.o
 .debug_pubtypes
                  0x0013e9        0x12c build/default/production/_ext/1639979382/uart3.o
 .debug_pubtypes
                  0x001515        0x17b build/default/production/_ext/1639979382/camera2.o
 .debug_pubtypes
                  0x001690        0x1f0 build/default/production/_ext/1161271966/FSIO.o
 .debug_pubtypes
                  0x001880        0x1ac build/default/production/_ext/1161271966/SD-SPI.o
 .debug_pubtypes
                  0x001a2c         0x77 build/default/production/_ext/1464792115/Analog2digital.o
 .debug_pubtypes
                  0x001aa3        0x157 build/default/production/_ext/1464792115/dateTime_RTC.o
 .debug_pubtypes
                  0x001bfa         0x94 build/default/production/_ext/1464792115/Encoder.o
 .debug_pubtypes
                  0x001c8e         0x77 build/default/production/_ext/1464792115/I2CDrivers.o
 .debug_pubtypes
                  0x001d05        0x13f build/default/production/_ext/1464792115/PortBitDrivers.o
 .debug_pubtypes
                  0x001e44        0x120 build/default/production/_ext/1464792115/RadiationSensorDriver.o
 .debug_pubtypes
                  0x001f64         0x12 build/default/production/_ext/1464792115/RedGreenBlueDrivers.o
 .debug_pubtypes
                  0x001f76         0x1b build/default/production/_ext/1464792115/SensorDirviers.o
 .debug_pubtypes
                  0x001f91         0xa6 build/default/production/_ext/1464792115/HdwrTest.o
 .debug_pubtypes
                  0x002037         0x1b build/default/production/_ext/1464792115/NVMDrivers.o
 .debug_pubtypes
                  0x002052         0x31 build/default/production/_ext/1464792115/OptoDrivers.o
 .debug_pubtypes
                  0x002083        0x1c5 build/default/production/_ext/1464792115/multiMotorDrivers.o
 .debug_pubtypes
                  0x002248         0x23 build/default/production/_ext/1464792115/TempHumidPresDrivers.o
 .debug_pubtypes
                  0x00226b         0x6a build/default/production/_ext/1749136748/non_pwm_led.o
 .debug_pubtypes
                  0x0022d5         0x71 build/default/production/_ext/1749136748/main.o
 .debug_pubtypes
                  0x002346         0x43 build/default/production/_ext/1749136748/kernel13.o
 .debug_pubtypes
                  0x002389         0x49 build/default/production/_ext/1749136748/kernel14.o
 .debug_pubtypes
                  0x0023d2         0xcf build/default/production/_ext/1749136748/SD_support.o
 .debug_pubtypes
                  0x0024a1         0x2e build/default/production/_ext/1749136748/kernel15.o
 .debug_pubtypes
                  0x0024cf         0x7c build/default/production/_ext/1749136748/kernel16.o
 .debug_pubtypes
                  0x00254b         0x8e build/default/production/_ext/1749136748/kernel17.o
 .debug_pubtypes
                  0x0025d9         0xc6 build/default/production/_ext/1749136748/kernel18.o
 .debug_pubtypes
                  0x00269f         0x55 build/default/production/_ext/1749136748/kernel12.o
 .debug_pubtypes
                  0x0026f4         0x12 build/default/production/_ext/1749136748/kernel19.o
 .debug_pubtypes
                  0x002706         0x59 build/default/production/_ext/1161263815/usb_descriptors.o
 .debug_pubtypes
                  0x00275f        0x2ad build/default/production/_ext/1161263815/usb_device.o
 .debug_pubtypes
                  0x002a0c        0x182 build/default/production/_ext/1161263815/usb_function_msd.o
 .debug_pubtypes
                  0x002b8e        0x187 build/default/production/_ext/1161263815/usb_function_cdc.o

__c30_signature
                  0x002d15        0x366
 __c30_signature
                  0x002d15          0x6 build/default/production/_ext/1639979382/button.o
 __c30_signature
                  0x002d1b          0x6 build/default/production/_ext/1639979382/camera.o
 __c30_signature
                  0x002d21          0x6 build/default/production/_ext/1639979382/co2.o
 __c30_signature
                  0x002d27          0x6 build/default/production/_ext/1639979382/datalog.o
 __c30_signature
                  0x002d2d          0x6 build/default/production/_ext/1639979382/file.o
 __c30_signature
                  0x002d33          0x6 build/default/production/_ext/1639979382/led.o
 __c30_signature
                  0x002d39          0x6 build/default/production/_ext/1639979382/nesi.o
 __c30_signature
                  0x002d3f          0x6 build/default/production/_ext/1639979382/powerDriver.o
 __c30_signature
                  0x002d45          0x6 build/default/production/_ext/1639979382/resistiveSensors.o
 __c30_signature
                  0x002d4b          0x6 build/default/production/_ext/1639979382/sdcard.o
 __c30_signature
                  0x002d51          0x6 build/default/production/_ext/1639979382/system.o
 __c30_signature
                  0x002d57          0x6 build/default/production/_ext/1639979382/usb.o
 __c30_signature
                  0x002d5d          0x6 build/default/production/_ext/1639979382/dateTime.o
 __c30_signature
                  0x002d63          0x6 build/default/production/_ext/1639979382/uart1.o
 __c30_signature
                  0x002d69          0x6 build/default/production/_ext/1639979382/uart2.o
 __c30_signature
                  0x002d6f          0x6 build/default/production/_ext/1639979382/uart3.o
 __c30_signature
                  0x002d75          0x6 build/default/production/_ext/1639979382/camera2.o
 __c30_signature
                  0x002d7b          0x6 build/default/production/_ext/1161271966/FSIO.o
 __c30_signature
                  0x002d81          0x6 build/default/production/_ext/1161271966/SD-SPI.o
 __c30_signature
                  0x002d87          0x6 build/default/production/_ext/1464792115/Analog2digital.o
 __c30_signature
                  0x002d8d          0x6 build/default/production/_ext/1464792115/dateTime_RTC.o
 __c30_signature
                  0x002d93          0x6 build/default/production/_ext/1464792115/Encoder.o
 __c30_signature
                  0x002d99          0x6 build/default/production/_ext/1464792115/I2CDrivers.o
 __c30_signature
                  0x002d9f          0x6 build/default/production/_ext/1464792115/PortBitDrivers.o
 __c30_signature
                  0x002da5          0x6 build/default/production/_ext/1464792115/RadiationSensorDriver.o
 __c30_signature
                  0x002dab          0x6 build/default/production/_ext/1464792115/RedGreenBlueDrivers.o
 __c30_signature
                  0x002db1          0x6 build/default/production/_ext/1464792115/SensorDirviers.o
 __c30_signature
                  0x002db7          0x6 build/default/production/_ext/1464792115/HdwrTest.o
 __c30_signature
                  0x002dbd          0x6 build/default/production/_ext/1464792115/NVMDrivers.o
 __c30_signature
                  0x002dc3          0x6 build/default/production/_ext/1464792115/OptoDrivers.o
 __c30_signature
                  0x002dc9          0x6 build/default/production/_ext/1464792115/multiMotorDrivers.o
 __c30_signature
                  0x002dcf          0x6 build/default/production/_ext/1464792115/TempHumidPresDrivers.o
 __c30_signature
                  0x002dd5          0x6 build/default/production/_ext/1749136748/non_pwm_led.o
 __c30_signature
                  0x002ddb          0x6 build/default/production/_ext/1749136748/main.o
 __c30_signature
                  0x002de1          0x6 build/default/production/_ext/1749136748/kernel13.o
 __c30_signature
                  0x002de7          0x6 build/default/production/_ext/1749136748/kernel14.o
 __c30_signature
                  0x002ded          0x6 build/default/production/_ext/1749136748/SD_support.o
 __c30_signature
                  0x002df3          0x6 build/default/production/_ext/1749136748/kernel15.o
 __c30_signature
                  0x002df9          0x6 build/default/production/_ext/1749136748/kernel16.o
 __c30_signature
                  0x002dff          0x6 build/default/production/_ext/1749136748/kernel17.o
 __c30_signature
                  0x002e05          0x6 build/default/production/_ext/1749136748/kernel18.o
 __c30_signature
                  0x002e0b          0x6 build/default/production/_ext/1749136748/kernel12.o
 __c30_signature
                  0x002e11          0x6 build/default/production/_ext/1749136748/kernel19.o
 __c30_signature
                  0x002e17          0x6 build/default/production/_ext/1161263815/usb_descriptors.o
 __c30_signature
                  0x002e1d          0x6 build/default/production/_ext/1161263815/usb_device.o
 __c30_signature
                  0x002e23          0x6 build/default/production/_ext/1161263815/usb_function_msd.o
 __c30_signature
                  0x002e29          0x6 build/default/production/_ext/1161263815/usb_function_cdc.o
 __c30_signature
                  0x002e2f          0x6 c:/apps/microchip/xc16/v1.26/bin/bin/../../lib\liblega-pic30-elf.a(crt0_standard.o)
 __c30_signature
                  0x002e35          0x6 c:/apps/microchip/xc16/v1.26/bin/bin/../../lib\liblega-pic30-elf.a(data_init_standard.o)
 __c30_signature
                  0x002e3b          0x6 c:/apps/microchip/xc16/v1.26/bin/bin/../../lib\liblega-pic30-elf.a(delay32.Leo)
 __c30_signature
                  0x002e41          0x6 c:/apps/microchip/xc16/v1.26/bin/bin/../../lib\libfastm-elf.a(divsi3.eo)
 __c30_signature
                  0x002e47          0x6 c:/apps/microchip/xc16/v1.26/bin/bin/../../lib\libfastm-elf.a(feqltle.eo)
 __c30_signature
                  0x002e4d          0x6 c:/apps/microchip/xc16/v1.26/bin/bin/../../lib\libfastm-elf.a(fgtge.eo)
 __c30_signature
                  0x002e53          0x6 c:/apps/microchip/xc16/v1.26/bin/bin/../../lib\libfastm-elf.a(fixsfsi.eo)
 __c30_signature
                  0x002e59          0x6 c:/apps/microchip/xc16/v1.26/bin/bin/../../lib\libfastm-elf.a(floatsisf.eo)
 __c30_signature
                  0x002e5f          0x6 c:/apps/microchip/xc16/v1.26/bin/bin/../../lib\libfastm-elf.a(floatunsisf.eo)
 __c30_signature
                  0x002e65          0x6 c:/apps/microchip/xc16/v1.26/bin/bin/../../lib\libfastm-elf.a(funpack.eo)
 __c30_signature
                  0x002e6b          0x6 c:/apps/microchip/xc16/v1.26/bin/bin/../../lib\libfastm-elf.a(divmoddi3.eo)
 __c30_signature
                  0x002e71          0x6 c:/apps/microchip/xc16/v1.26/bin/bin/../../lib\libfastm-elf.a(muldi3.eo)
 __c30_signature
                  0x002e77          0x6 c:/apps/microchip/xc16/v1.26/bin/bin/../../lib\libfastm-elf.a(errno.eo)
 __c30_signature
                  0x002e7d          0x6 c:/apps/microchip/xc16/v1.26/bin/bin/../../lib\libfastm-elf.a(fcompare.eo)
 __c30_signature
                  0x002e83          0x6 c:/apps/microchip/xc16/v1.26/bin/bin/../../lib\libfastm-elf.a(floatdisf.eo)
 __c30_signature
                  0x002e89          0x6 c:/apps/microchip/xc16/v1.26/bin/bin/../../lib\libfastm-elf.a(floatundisf.eo)
 __c30_signature
                  0x002e8f          0x6 c:/apps/microchip/xc16/v1.26/bin/bin/../../lib\libfastm-elf.a(fpack.eo)
 __c30_signature
                  0x002e95          0x6 c:/apps/microchip/xc16/v1.26/bin/bin/../../lib\libfastm-elf.a(funpack2.eo)
 __c30_signature
                  0x002e9b          0x6 c:/apps/microchip/xc16/v1.26/bin/bin/../../lib\libfastm-elf.a(umuldi3.eo)
 __c30_signature
                  0x002ea1          0x6 c:/apps/microchip/xc16/v1.26/bin/bin/../../lib\liblega-c-elf.a(isspace.XXeso)
 __c30_signature
                  0x002ea7          0x6 c:/apps/microchip/xc16/v1.26/bin/bin/../../lib\liblega-c-elf.a(tolower.XXeso)
 __c30_signature
                  0x002ead          0x6 c:/apps/microchip/xc16/v1.26/bin/bin/../../lib\liblega-c-elf.a(toupper.XXeso)
 __c30_signature
                  0x002eb3          0x6 c:/apps/microchip/xc16/v1.26/bin/bin/../../lib\liblega-c-elf.a(atoi.XXeo)
 __c30_signature
                  0x002eb9          0x6 c:/apps/microchip/xc16/v1.26/bin/bin/../../lib\liblega-c-elf.a(memcpy.XXeo)
 __c30_signature
                  0x002ebf          0x6 c:/apps/microchip/xc16/v1.26/bin/bin/../../lib\liblega-c-elf.a(memset.XXeo)
 __c30_signature
                  0x002ec5          0x6 c:/apps/microchip/xc16/v1.26/bin/bin/../../lib\liblega-c-elf.a(puts.XXeo)
 __c30_signature
                  0x002ecb          0x6 c:/apps/microchip/xc16/v1.26/bin/bin/../../lib\liblega-c-elf.a(strcmp.XXeo)
 __c30_signature
                  0x002ed1          0x6 c:/apps/microchip/xc16/v1.26/bin/bin/../../lib\liblega-c-elf.a(strcpy.XXeo)
 __c30_signature
                  0x002ed7          0x6 c:/apps/microchip/xc16/v1.26/bin/bin/../../lib\liblega-c-elf.a(strlen.XXeo)
 __c30_signature
                  0x002edd          0x6 c:/apps/microchip/xc16/v1.26/bin/bin/../../lib\liblega-c-elf.a(strncpy.XXeo)
 __c30_signature
                  0x002ee3          0x6 c:/apps/microchip/xc16/v1.26/bin/bin/../../lib\liblega-c-elf.a(strtok.XXeo)
 __c30_signature
                  0x002ee9          0x6 c:/apps/microchip/xc16/v1.26/bin/bin/../../lib\liblega-c-elf.a(xfiles.XXeo)
 __c30_signature
                  0x002eef          0x6 c:/apps/microchip/xc16/v1.26/bin/bin/../../lib\liblega-c-elf.a(xstoul.XXeo)
 __c30_signature
                  0x002ef5          0x6 c:/apps/microchip/xc16/v1.26/bin/bin/../../lib\liblega-c-elf.a(vsprintf.XXeo)
 __c30_signature
                  0x002efb          0x6 c:/apps/microchip/xc16/v1.26/bin/bin/../../lib\liblega-c-elf.a(xprintf.XXeo)
 __c30_signature
                  0x002f01          0x6 c:/apps/microchip/xc16/v1.26/bin/bin/../../lib\liblega-c-elf.a(xputfld.XXeo)
 __c30_signature
                  0x002f07          0x6 c:/apps/microchip/xc16/v1.26/bin/bin/../../lib\liblega-c-elf.a(fputc.XXelo)
 __c30_signature
                  0x002f0d          0x6 c:/apps/microchip/xc16/v1.26/bin/bin/../../lib\liblega-c-elf.a(strchr.XXelo)
 __c30_signature
                  0x002f13          0x6 c:/apps/microchip/xc16/v1.26/bin/bin/../../lib\liblega-c-elf.a(xvacopy.XXelo)
 __c30_signature
                  0x002f19          0x6 c:/apps/microchip/xc16/v1.26/bin/bin/../../lib\liblega-c-elf.a(sscanf_cdnopuxX.XXeo)
 __c30_signature
                  0x002f1f          0x6 c:/apps/microchip/xc16/v1.26/bin/bin/../../lib\liblega-c-elf.a(xscanf_cdnopuxX.XXeo)
 __c30_signature
                  0x002f25          0x6 c:/apps/microchip/xc16/v1.26/bin/bin/../../lib\liblega-c-elf.a(sprintf_cdfFnopsuxX.XXeo)
 __c30_signature
                  0x002f2b          0x6 c:/apps/microchip/xc16/v1.26/bin/bin/../../lib\liblega-c-elf.a(xprintf_cdfFnopsuxX.XXeo)
 __c30_signature
                  0x002f31          0x6 c:/apps/microchip/xc16/v1.26/bin/bin/../../lib\liblega-c-elf.a(xputfld_cdfFnopsuxX.XXeo)
 __c30_signature
                  0x002f37          0x6 c:/apps/microchip/xc16/v1.26/bin/bin/../../lib\liblega-c-elf.a(xldtob_cdfFnopsuxX.XXeo)
 __c30_signature
                  0x002f3d          0x6 c:/apps/microchip/xc16/v1.26/bin/bin/../../lib\liblega-c-elf.a(xgenld_cdfFnopsuxX.XXeo)
 __c30_signature
                  0x002f43          0x6 c:/apps/microchip/xc16/v1.26/bin/bin/../../lib\liblega-c-elf.a(printf_s.XXeo)
 __c30_signature
                  0x002f49          0x6 c:/apps/microchip/xc16/v1.26/bin/bin/../../lib\liblega-c-elf.a(div.XXeo)
 __c30_signature
                  0x002f4f          0x6 c:/apps/microchip/xc16/v1.26/bin/bin/../../lib\liblega-c-elf.a(fflush.XXeo)
 __c30_signature
                  0x002f55          0x6 c:/apps/microchip/xc16/v1.26/bin/bin/../../lib\liblega-c-elf.a(fputs.XXeo)
 __c30_signature
                  0x002f5b          0x6 c:/apps/microchip/xc16/v1.26/bin/bin/../../lib\liblega-c-elf.a(fwrite.XXeo)
 __c30_signature
                  0x002f61          0x6 c:/apps/microchip/xc16/v1.26/bin/bin/../../lib\liblega-c-elf.a(ldiv.XXeo)
 __c30_signature
                  0x002f67          0x6 c:/apps/microchip/xc16/v1.26/bin/bin/../../lib\liblega-c-elf.a(memchr.XXeo)
 __c30_signature
                  0x002f6d          0x6 c:/apps/microchip/xc16/v1.26/bin/bin/../../lib\liblega-c-elf.a(strcspn.XXeo)
 __c30_signature
                  0x002f73          0x6 c:/apps/microchip/xc16/v1.26/bin/bin/../../lib\liblega-c-elf.a(strrchr.XXeo)
 __c30_signature
                  0x002f79          0x6 c:/apps/microchip/xc16/v1.26/bin/bin/../../lib\liblega-c-elf.a(strspn.XXeo)
 __c30_signature
                  0x002f7f          0x6 c:/apps/microchip/xc16/v1.26/bin/bin/../../lib\liblega-c-elf.a(xfwprep.XXeo)
 __c30_signature
                  0x002f85          0x6 c:/apps/microchip/xc16/v1.26/bin/bin/../../lib\liblega-c-elf.a(xldtob.XXeo)
 __c30_signature
                  0x002f8b          0x6 c:/apps/microchip/xc16/v1.26/bin/bin/../../lib\liblega-c-elf.a(xldunsca.XXeo)
 __c30_signature
                  0x002f91          0x6 c:/apps/microchip/xc16/v1.26/bin/bin/../../lib\liblega-c-elf.a(xlitob.XXeo)
 __c30_signature
                  0x002f97          0x6 c:/apps/microchip/xc16/v1.26/bin/bin/../../lib\liblega-c-elf.a(xputtxt.XXeo)
 __c30_signature
                  0x002f9d          0x6 c:/apps/microchip/xc16/v1.26/bin/bin/../../lib\liblega-c-elf.a(fclose.XXelo)
 __c30_signature
                  0x002fa3          0x6 c:/apps/microchip/xc16/v1.26/bin/bin/../../lib\liblega-c-elf.a(xatexit.XXelo)
 __c30_signature
                  0x002fa9          0x6 c:/apps/microchip/xc16/v1.26/bin/bin/../../lib\liblega-c-elf.a(xdnorm.XXelo)
 __c30_signature
                  0x002faf          0x6 c:/apps/microchip/xc16/v1.26/bin/bin/../../lib\liblega-c-elf.a(xldscale.XXelo)
 __c30_signature
                  0x002fb5          0x6 c:/apps/microchip/xc16/v1.26/bin/bin/../../lib\liblega-c-elf.a(xgetfld_cdnopuxX.XXeo)
 __c30_signature
                  0x002fbb          0x6 c:/apps/microchip/xc16/v1.26/bin/bin/../../lib\liblega-c-elf.a(free.XXeo)
 __c30_signature
                  0x002fc1          0x6 c:/apps/microchip/xc16/v1.26/bin/bin/../../lib\liblega-c-elf.a(malloc.XXeo)
 __c30_signature
                  0x002fc7          0x6 c:/apps/microchip/xc16/v1.26/bin/bin/../../lib\liblega-c-elf.a(xgenld.XXeo)
 __c30_signature
                  0x002fcd          0x6 c:/apps/microchip/xc16/v1.26/bin/bin/../../lib\liblega-c-elf.a(xgetint.XXeo)
 __c30_signature
                  0x002fd3          0x6 c:/apps/microchip/xc16/v1.26/bin/bin/../../lib\liblega-c-elf.a(xgetmem.XXeo)
 __c30_signature
                  0x002fd9          0x6 c:/apps/microchip/xc16/v1.26/bin/bin/../../lib\liblega-c-elf.a(xgetstr.XXeo)
 __c30_signature
                  0x002fdf          0x6 c:/apps/microchip/xc16/v1.26/bin/bin/../../lib\liblega-c-elf.a(xstoll.XXeo)
 __c30_signature
                  0x002fe5          0x6 c:/apps/microchip/xc16/v1.26/bin/bin/../../lib\liblega-c-elf.a(xstoull.XXeo)
 __c30_signature
                  0x002feb          0x6 c:/apps/microchip/xc16/v1.26/bin/bin/../../lib\liblega-pic30-elf.a(close.Leo)
 __c30_signature
                  0x002ff1          0x6 c:/apps/microchip/xc16/v1.26/bin/bin/../../lib\liblega-pic30-elf.a(write.Leo)
 __c30_signature
                  0x002ff7          0x6 c:/apps/microchip/xc16/v1.26/bin/bin/../../lib\liblega-pic30-elf.a(remove.Leo)
 __c30_signature
                  0x002ffd          0x6 c:/apps/microchip/xc16/v1.26/bin/bin/../../lib\liblega-pic30-elf.a(sbrk.Leo)
 __c30_signature
                  0x003003          0x6 c:/apps/microchip/xc16/v1.26/bin/bin/../../lib\liblega-pic30-elf.a(c30_uart.Leo)
 __c30_signature
                  0x003009          0x6 c:/apps/microchip/xc16/v1.26/bin/bin/../../lib\liblega-pic30-elf.a(brk.Lelo)
 __c30_signature
                  0x00300f          0x6 c:/apps/microchip/xc16/v1.26/bin/bin/../../lib\libfastm-elf.a(deqltle.eo)
 __c30_signature
                  0x003015          0x6 c:/apps/microchip/xc16/v1.26/bin/bin/../../lib\libfastm-elf.a(dgtge.eo)
 __c30_signature
                  0x00301b          0x6 c:/apps/microchip/xc16/v1.26/bin/bin/../../lib\libfastm-elf.a(extendsfdf.eo)
 __c30_signature
                  0x003021          0x6 c:/apps/microchip/xc16/v1.26/bin/bin/../../lib\libfastm-elf.a(fixdfsi.eo)
 __c30_signature
                  0x003027          0x6 c:/apps/microchip/xc16/v1.26/bin/bin/../../lib\libfastm-elf.a(floatsidf.eo)
 __c30_signature
                  0x00302d          0x6 c:/apps/microchip/xc16/v1.26/bin/bin/../../lib\libfastm-elf.a(mulsi3.eo)
 __c30_signature
                  0x003033          0x6 c:/apps/microchip/xc16/v1.26/bin/bin/../../lib\libfastm-elf.a(dpadd.eo)
 __c30_signature
                  0x003039          0x6 c:/apps/microchip/xc16/v1.26/bin/bin/../../lib\libfastm-elf.a(dpdiv.eo)
 __c30_signature
                  0x00303f          0x6 c:/apps/microchip/xc16/v1.26/bin/bin/../../lib\libfastm-elf.a(dpmul.eo)
 __c30_signature
                  0x003045          0x6 c:/apps/microchip/xc16/v1.26/bin/bin/../../lib\libfastm-elf.a(dpsubs.eo)
 __c30_signature
                  0x00304b          0x6 c:/apps/microchip/xc16/v1.26/bin/bin/../../lib\libfastm-elf.a(dcompare.eo)
 __c30_signature
                  0x003051          0x6 c:/apps/microchip/xc16/v1.26/bin/bin/../../lib\libfastm-elf.a(dtype.eo)
 __c30_signature
                  0x003057          0x6 c:/apps/microchip/xc16/v1.26/bin/bin/../../lib\libfastm-elf.a(dunpack.eo)
 __c30_signature
                  0x00305d          0x6 c:/apps/microchip/xc16/v1.26/bin/bin/../../lib\libfastm-elf.a(dunpack2.eo)
 __c30_signature
                  0x003063          0x6 c:/apps/microchip/xc16/v1.26/bin/bin/../../lib\libfastm-elf.a(floatdidf.eo)
 __c30_signature
                  0x003069          0x6 c:/apps/microchip/xc16/v1.26/bin/bin/../../lib\libfastm-elf.a(floatundidf.eo)
 __c30_signature
                  0x00306f          0x6 c:/apps/microchip/xc16/v1.26/bin/bin/../../lib\libfastm-elf.a(dpack.eo)
 __c30_signature
                  0x003075          0x6 c:/apps/microchip/xc16/v1.26/bin/bin/../../lib\libfastm-elf.a(dpropagateNaN.eo)

.nbss               0x0800          0x2
 .nbss              0x0800          0x2 c:/apps/microchip/xc16/v1.26/bin/bin/../../lib\libfastm-elf.a(errno.eo)
                    0x0800                  _errno

.bss                0x0802       0x25f6
 .bss               0x0802       0x1040 build/default/production/_ext/1639979382/system.o
                    0x0802                  _sysBuffer
                    0x1002                  _RX_buffer
                    0x1802                  _TX_buffer
 .bss               0x1842        0xfe4 build/default/production/_ext/1161271966/FSIO.o
                    0x1842                  _gFileArray
                    0x18f6                  _gFileSlotOpen
                    0x18fa                  _lfnData
                    0x1f00                  _recordSearchName
                    0x2102                  _recordFoundName
                    0x2304                  _recordSearchLength
                    0x2306                  _fileFoundString
                    0x2510                  _gTimeCrtMS
                    0x2512                  _gTimeCrtTime
                    0x2514                  _gTimeCrtDate
                    0x2516                  _gTimeAccDate
                    0x2518                  _gTimeWrtTime
                    0x251a                  _gTimeWrtDate
                    0x251c                  _gNeedFATWrite
                    0x251e                  _gBufferOwner
                    0x2520                  _gNeedDataWrite
                    0x2521                  _nextClusterIsLast
                    0x2522                  _gBufferZeroed
                    0x2524                  _FatRootDirClusterValue
                    0x2528                  _FSerrno
                    0x252a                  _TempClusterCalc
                    0x252e                  _dirCleared
                    0x252f                  _recache
                    0x2530                  _tempCWDobj
                    0x256c                  _gFileTemp
                    0x25a8                  _cwd
                    0x25e4                  _gDiskData
                    0x2608                  _asciiFilename
                    0x260a                  _fileNameLength
                    0x260c                  _utf16Filename
                    0x260e                  _utfModeFileName
                    0x2610                  _twoByteMode
                    0x2612                  _tempDirectoryString
                    0x281c                  _defaultArray
 .bss               0x2826        0x34c build/default/production/_ext/1464792115/TempHumidPresDrivers.o
                    0x2826                  _Raw_Temperature
                    0x282a                  _Raw_Pressure
                    0x282e                  _Raw_Humidity
                    0x2832                  _FLT_Temperature
                    0x2836                  _FLT_Pressure
                    0x283a                  _FLT_Humidity
                    0x283e                  _ConfigParams
                    0x2862                  _Config12
                    0x2886                  _THP_rbuf
                    0x28c6                  _THP_Data
                    0x28d6                  _t_fine
                    0x28da                  _varT1
                    0x28de                  _varT2
                    0x28e2                  _T
                    0x28e6                  _var1
                    0x28ee                  _var2
                    0x28f6                  _var3
                    0x28fe                  _var4
                    0x2906                  _var5
                    0x290e                  _var6
                    0x2916                  _var7
                    0x291e                  _var8
                    0x2926                  _p
                    0x292e                  _far1
                    0x2932                  _far2
                    0x2936                  _far3
                    0x293a                  _far4
                    0x293e                  _far5
                    0x2942                  _far6
                    0x2946                  _far7
                    0x294a                  _far8
                    0x294e                  _fp
                    0x2952                  _hum1
                    0x2956                  _hum2
                    0x295a                  _hum3
                    0x295e                  _hum4
                    0x2962                  _far_H1
                    0x2966                  _far_H2
                    0x296a                  _far_H3
                    0x296e                  _far_H4
                    0x2972                  _recBuf
 .bss               0x2b72        0x286 build/default/production/_ext/1161263815/usb_device.o
                    0x2b72                  _USBDeviceState
                    0x2b74                  _USBActiveConfiguration
                    0x2b75                  _USBAlternateInterface
                    0x2b78                  _pBDTEntryEP0OutCurrent
                    0x2b7a                  _pBDTEntryEP0OutNext
                    0x2b7c                  _pBDTEntryOut
                    0x2b84                  _pBDTEntryIn
                    0x2b8c                  _shortPacketStatus
                    0x2b8d                  _controlTransferState
                    0x2b8e                  _inPipes
                    0x2b94                  _outPipes
                    0x2b9c                  _pDst
                    0x2b9e                  _RemoteWakeup
                    0x2ba0                  _USBBusIsSuspended
                    0x2ba2                  _USTATcopy
                    0x2ba3                  _endpoint_number
                    0x2ba4                  _BothEP0OutUOWNsSet
                    0x2ba6                  _ep_data_in
                    0x2baa                  _ep_data_out
                    0x2bae                  _USBStatusStageTimeoutCounter
                    0x2bb0                  _USBDeferStatusStagePacket
                    0x2bb2                  _USBStatusStageEnabledFlag1
                    0x2bb4                  _USBStatusStageEnabledFlag2
                    0x2bb6                  _USBDeferINDataStagePackets
                    0x2bb8                  _USBDeferOUTDataStagePackets
                    0x2bba                  _SetupPkt
                    0x2bc2                  _CtrlTrfData
                    0x2bca                  _msd_cbw
                    0x2bea                  _msd_csw
                    0x2bf8                  _msd_buffer

_04A1BC0059223713
                    0x2df8        0x200
 _04A1BC0059223713
                    0x2df8        0x200 build/default/production/_ext/1161271966/FSIO.o
                    0x2df8                  _gDataBuffer

_04A1BD2059223713
                    0x2ff8        0x200
 _04A1BD2059223713
                    0x2ff8        0x200 build/default/production/_ext/1161271966/FSIO.o
                    0x2ff8                  _gFATBuffer

.bss                0x31f8        0x1ae
 .bss               0x31f8        0x102 build/default/production/_ext/1639979382/usb.o
 .bss               0x32fa         0xac build/default/production/_ext/1161263815/usb_function_cdc.o
                    0x32fa                  _cdc_notice
                    0x3304                  _cdc_data_rx
                    0x3344                  _cdc_data_tx
                    0x3384                  _line_coding
                    0x338c                  _cdc_rx_len
                    0x338d                  _cdc_trf_state
                    0x338e                  _pCDCSrc
                    0x3390                  _pCDCDst
                    0x3392                  _cdc_tx_len
                    0x3393                  _cdc_mem_type
                    0x3394                  _CDCDataOutHandle
                    0x3396                  _CDCDataInHandle
                    0x3398                  _control_signal_bitmap
                    0x339a                  _BaudRateGen
                    0x339e                  _dummy_encapsulated_cmd_response

.data               0x33a6        0x102
 .data              0x33a6         0x88 c:/apps/microchip/xc16/v1.26/bin/bin/../../lib\liblega-c-elf.a(xfiles.XXeo)
                    0x33a6                  __Stdin
                    0x33ce                  __Stdout
                    0x33f6                  __Stderr
                    0x341e                  __Files
 .data              0x342e         0x7a c:/apps/microchip/xc16/v1.26/bin/bin/../../lib\liblega-c-elf.a(xldtob.XXeo)

.bss                0x34a8         0x58
 .bss               0x34a8         0x58 build/default/production/_ext/1161263815/usb_function_msd.o
                    0x34a8                  _MSD_State
                    0x34a9                  _MSDCommandState
                    0x34aa                  _MSDReadState
                    0x34ab                  _MSDWriteState
                    0x34ac                  _MSDRetryAttempt
                    0x34ae                  _gblCBW
                    0x34ce                  _gblCBWLength
                    0x34cf                  _gblSenseData
                    0x34e2                  _ptrNextData
                    0x34e4                  _USBMSDOutHandle
                    0x34e6                  _USBMSDInHandle
                    0x34e8                  _MSBBufferIndex
                    0x34ea                  _gblMediaPresent
                    0x34ec                  _SoftDetach
                    0x34ee                  _MSDHostNoData
                    0x34f0                  _MSDCBWValid
                    0x34f8                  _gblNumBLKS
                    0x34fc                  _gblBLKLen

.data               0x3500         0xec
 .data              0x3500         0x58 c:/apps/microchip/xc16/v1.26/bin/bin/../../lib\liblega-c-elf.a(xldtob_cdfFnopsuxX.XXeo)
 .data              0x3558         0x4a c:/apps/microchip/xc16/v1.26/bin/bin/../../lib\liblega-c-elf.a(xstoul.XXeo)
 .data              0x35a2         0x4a c:/apps/microchip/xc16/v1.26/bin/bin/../../lib\liblega-c-elf.a(xstoull.XXeo)

_04C3E7E05922371f
                    0x3600         0x40
 _04C3E7E05922371f
                    0x3600         0x40 build/default/production/_ext/1161263815/usb_device.o
                    0x3600                  _BDT

.bss                0x3640        0x390
 .bss               0x3640         0xd6 build/default/production/_ext/1464792115/SensorDirviers.o
                    0x3640                  _SNS_Temperature
                    0x3644                  _SNS_Pressure
                    0x3648                  _SNS_Humidity
                    0x364c                  _SNS_CLR_LIGHT
                    0x364e                  _SNS_RED_LIGHT
                    0x3650                  _SNS_BLU_LIGHT
                    0x3652                  _SNS_GRN_LIGHT
                    0x3654                  _SNS_EncPeriod
                    0x3656                  _SNS_EncodPos
                    0x3658                  _SNS_EncodPosPrev
                    0x365a                  _SNS_MovFlg
                    0x365c                  _SNS_EncodOffset
                    0x365e                  _SNS_EncDirFlag
                    0x3660                  _SNS_RadPeriod
                    0x3662                  _SNS_MotorDir
                    0x3664                  _SNS_CarouselPos
                    0x3666                  _SNS_LastRtn
                    0x3676                  _SNS_LastErr
                    0x3686                  _SNS_ErrorCnt
                    0x3696                  _SNS_Buffer
 .bss               0x3716         0xcc build/default/production/_ext/1464792115/multiMotorDrivers.o
                    0x3716                  _EncoderErrorLog
                    0x3752                  _carouselAngle
                    0x3754                  _motorStepsPerSec
                    0x3756                  _duration
                    0x3758                  _SNS_virtEncoderBgn
                    0x375a                  _SNS_virtEncoderEnd
                    0x375c                  _SNS_virtEncoderNow
                    0x375e                  _oc8high
                    0x3760                  _oc8low
                    0x3762                  _oc8rise
                    0x3764                  _oc8fall
                    0x3766                  _oc8stat
                    0x3768                  _oc8cnt
                    0x376a                  _OC8State
                    0x376c                  _oc9high
                    0x376e                  _oc9low
                    0x3770                  _oc9rise
                    0x3772                  _oc9fall
                    0x3774                  _oc9stat
                    0x3776                  _oc9cnt
                    0x3778                  _OC9State
                    0x377a                  _oc8Buffer
                    0x37aa                  _oc9Buffer
                    0x37da                  _duration32
                    0x37de                  _durationLong
 .bss               0x37e2         0xc0 build/default/production/_ext/1464792115/NVMDrivers.o
                    0x37e2                  _RTC_GET_TIME
                    0x37f2                  _I2C2_RESPONSE_BUFFER
                    0x3832                  _Buffer1
                    0x386a                  _Buffer2
 .bss               0x38a2         0x98 build/default/production/_ext/1464792115/Encoder.o
                    0x38a2                  _EncTimer
                    0x38a4                  _flag
                    0x38a6                  _tdif
                    0x38a8                  _i
                    0x38aa                  _j
                    0x38ac                  _Rising
                    0x38b0                  _prevRising
                    0x38b4                  _Falling
                    0x38b8                  _prevFalling
                    0x38bc                  _period
                    0x38c0                  _fallperiod
                    0x38c4                  _position
                    0x38c8                  _EncPosition
                    0x38cc                  _EncPosition2
                    0x38d0                  _RECountEntry
                    0x38d4                  _RECountIC5
                    0x38d8                  _RECountIC6
                    0x38dc                  _RECountFlag
                    0x38e0                  _scaledPosition
                    0x38e4                  _scaledPeriod
                    0x38e8                  _scaledResult
                    0x38ec                  _ENC_OvflCnt
                    0x38ee                  _prevRisingArray
                    0x390e                  _prevFallingArray
                    0x392e                  _divisor
                    0x3932                  _quotient
                    0x3934                  _loopvar
                    0x3936                  _EncmSdelay
                    0x3938                  _EncStat
 .bss               0x393a         0x96 build/default/production/_ext/1464792115/I2CDrivers.o
                    0x393a                  _I2C2_Diagnostics
                    0x395a                  _I2C2_Bit_TimeOutStDev
                    0x395c                  _I2C2_sbuf
                    0x396c                  _I2C2_rbuf
                    0x39ac                  _I2C2_Data
                    0x39ae                  _I2C2_Msg_Ack_cnt
                    0x39b0                  _I2C2_Msg_Nak_cnt
                    0x39b2                  _I2C2_Msg_Reset_cnt
                    0x39b4                  _I2C2_Msg_Req_cnt
                    0x39b6                  _I2C2_Snd_Byte_cnt_TO2
                    0x39b8                  _I2C2_Snd_Byte_cnt_TO3
                    0x39ba                  _I2C2_Snd_Byte_cnt_TO4
                    0x39bc                  _I2C2_Snd_Byte_cnt_ACK
                    0x39be                  _I2C2_Snd_Byte_cnt_NAK
                    0x39c0                  _I2C2_Get_Byte_cnt_TO2
                    0x39c2                  _I2C2_Get_Byte_cnt_TO3
                    0x39c4                  _I2C2_Get_Byte_cnt_TO4
                    0x39c6                  _I2C2_Get_Byte_cnt_ACK
                    0x39c8                  _I2C2_Get_Byte_cnt_NAK
                    0x39ca                  _I2c2_STop_Bit_Width_X1
                    0x39cc                  _I2c2_STop_Bit_Width_X2
                    0x39ce                  _I2c2_STop_Bit_WidthCnt

.data               0x39d0        0x12c
 .data              0x39d0         0x54 build/default/production/_ext/1749136748/SD_support.o
                    0x39d0                  _SDExtraFile
 .data              0x3a24         0x4c build/default/production/_ext/1639979382/dateTime.o
 .data              0x3a70         0x4c build/default/production/_ext/1464792115/dateTime_RTC.o
 .data              0x3abc         0x40 build/default/production/_ext/1464792115/SensorDirviers.o
                    0x3abc                  _SNS_VpotCur
                    0x3abe                  _SNS_MotorPos
                    0x3ac0                  _SNS_MotorDes
                    0x3ac2                  _SNS_MotorDur
                    0x3ac4                  _RTC_I2C_TimeStamp
                    0x3ad6                  _xRTCTime
                    0x3ae8                  _iRTCTime
                    0x3afa                  _SNS_BufferPtr

.bss                0x3afc        0x130
 .bss               0x3afc         0x3e build/default/production/_ext/1749136748/main.o
                    0x3afc                  _config
 .bss               0x3b3a         0x3a build/default/production/_ext/1161271966/SD-SPI.o
                    0x3b3a                  _MDD_SDSPI_finalLBA
                    0x3b3e                  _gMediaSectorSize
                    0x3b40                  _gSDMode
 .bss               0x3b74         0x38 build/default/production/_ext/1464792115/HdwrTest.o
                    0x3b74                  _readAllSensors
                    0x3b76                  _readTHPSensor
                    0x3b78                  _readRGBSensor
                    0x3b7a                  _readRadSensor
                    0x3b7c                  _readTemp2
                    0x3b7e                  _readXRTCValue
                    0x3b80                  _readIRTCValue
                    0x3b82                  _readVRTCValue
                    0x3b84                  _readOptoSensor
                    0x3b86                  _readNVMValue
                    0x3b88                  _pingXRTC
                    0x3b8a                  _writeXRTC
                    0x3b8c                  _writeIRTC
                    0x3b8e                  _toggleLED1
                    0x3b90                  _toggleLED2
                    0x3b92                  _toggleCAM1
                    0x3b94                  _toggleCAM2
                    0x3b96                  _readEncoderValue
                    0x3b98                  _writeSensors
                    0x3b9a                  _writeTempHumPres
                    0x3b9c                  _takePicture1
                    0x3b9e                  _takePicture2
                    0x3ba0                  _usbConnect
                    0x3ba2                  _delay05Sec
                    0x3ba4                  _delay15Sec
                    0x3ba6                  _delay30Sec
                    0x3ba8                  _stat
                    0x3baa                  _SNS_AltTemperature
 .bss               0x3bac         0x2c build/default/production/_ext/1639979382/camera.o
                    0x3bbc                  _imageFile
 .bss               0x3bd8         0x2c build/default/production/_ext/1639979382/camera2.o
                    0x3be8                  _imageFile2
 .bss               0x3c04         0x28 build/default/production/_ext/1464792115/OptoDrivers.o
                    0x3c04                  _t5prev
                    0x3c06                  _t5curr
                    0x3c08                  _CWbit
                    0x3c0a                  _CCWbit
                    0x3c0c                  _CWfilter
                    0x3c0e                  _CCWfilter
                    0x3c10                  _CWcount
                    0x3c12                  _CCWcount
                    0x3c14                  _CWprev
                    0x3c16                  _CCWprev
                    0x3c18                  _LoadCount
                    0x3c1a                  _optoZero
                    0x3c1c                  _QuadWidth
                    0x3c1e                  _quadCount
                    0x3c20                  _CWhistory
                    0x3c24                  _CCWhistory
                    0x3c28                  _Quadhistory

.data               0x3c2c         0x26
 .data              0x3c2c         0x26 c:/apps/microchip/xc16/v1.26/bin/bin/../../lib\liblega-c-elf.a(xgetint.XXeo)

.bss                0x3c52         0x66
 .bss               0x3c52         0x22 build/default/production/_ext/1639979382/dateTime.o
 .bss               0x3c74         0x22 build/default/production/_ext/1464792115/dateTime_RTC.o
 .bss               0x3c96         0x22 build/default/production/_ext/1464792115/RedGreenBlueDrivers.o
                    0x3c96                  _RGB_rbuf
                    0x3cb6                  _RGB_Status

.data               0x3cb8         0x6e
 .data              0x3cb8         0x22 c:/apps/microchip/xc16/v1.26/bin/bin/../../lib\liblega-c-elf.a(xlitob.XXeo)
 .data              0x3cda         0x1a c:/apps/microchip/xc16/v1.26/bin/bin/../../lib\liblega-c-elf.a(xprintf.XXeo)
 .data              0x3cf4         0x1a c:/apps/microchip/xc16/v1.26/bin/bin/../../lib\liblega-c-elf.a(xprintf_cdfFnopsuxX.XXeo)
 .data              0x3d0e         0x18 build/default/production/_ext/1464792115/RedGreenBlueDrivers.o
                    0x3d0e                  _RGB_Cfg2S1
                    0x3d11                  _RGB_Cfg2S2
                    0x3d13                  _RGB_Cfg2S3
                    0x3d16                  _RGB_Cfg2S4
                    0x3d19                  _RGB_Cfg2S5
                    0x3d1e                  _RGB_ClrIrqSR
                    0x3d23                  _RGB_StatusSS
                    0x3d24                  _RGB_RdValS1

.data               0x35ec         0x12
 .data              0x35ec         0x12 build/default/production/_ext/1464792115/TempHumidPresDrivers.o
                    0x35ec                  _THP_Cmp1S1
                    0x35ed                  _THP_Cmp1S2
                    0x35ee                  _THP_Cmp1S3
                    0x35ef                  _THP_Cmp1S4
                    0x35f0                  _THP_Cfg2S1
                    0x35f8                  _THP_Cfg2S2
                    0x35fa                  _THP_Cfg2S3
                    0x35fc                  _THP_Cfg2S4

.data               0x3d26         0x10
 .data              0x3d26         0x10 build/default/production/_ext/1639979382/usb.o
                    0x3d26                  _LUN

.bss                0x3d36          0xc
 .bss               0x3d36          0xc build/default/production/_ext/1639979382/file.o

.data               0x3d42          0xc
 .data              0x3d42          0xc c:/apps/microchip/xc16/v1.26/bin/bin/../../lib\liblega-c-elf.a(xscanf_cdnopuxX.XXeo)

.bss                0x3d4e          0xa
 .bss               0x3d4e          0xa build/default/production/_ext/1639979382/datalog.o

.data               0x3d58         0x14
 .data              0x3d58          0xa build/default/production/_ext/1161271966/FSIO.o
                    0x3d58                  _gLastFATSectorRead
                    0x3d5c                  _gLastDataSectorRead
                    0x3d60                  _cwdptr
 .data              0x3d62          0xa build/default/production/_ext/1464792115/I2CDrivers.o
                    0x3d62                  _I2C2_Bit_TimeOut
                    0x3d64                  _I2C2_Byte_TimeOut
                    0x3d66                  _I2C2_sbufptr
                    0x3d68                  _I2C2_rbufptr
                    0x3d6a                  _I2C2_diagnostic

.bss                0x3d6c         0x1e
 .bss               0x3d6c          0x8 build/default/production/_ext/1639979382/uart1.o
 .bss               0x3d74          0x8 build/default/production/_ext/1639979382/uart2.o
 .bss               0x3d7c          0x8 build/default/production/_ext/1639979382/uart3.o
 .bss               0x3d84          0x6 build/default/production/_ext/1639979382/button.o

.data               0x3d8a          0xe
 .data              0x3d8a          0x6 build/default/production/_ext/1464792115/NVMDrivers.o
                    0x3d8a                  _RTC_SET_LENGTH
                    0x3d8c                  _RTC_GET_LENGTH
                    0x3d8e                  _RTC_RSP_LENGTH
 .data              0x3d90          0x4 build/default/production/_ext/1464792115/multiMotorDrivers.o
                    0x3d90                  _motLookUp
                    0x3d92                  _moveStatus
 .data              0x3d94          0x4 c:/apps/microchip/xc16/v1.26/bin/bin/../../lib\liblega-c-elf.a(strtok.XXeo)

.bss                0x3d98          0x4
 .bss               0x3d98          0x4 c:/apps/microchip/xc16/v1.26/bin/bin/../../lib\liblega-c-elf.a(malloc.XXeo)
                    0x3d98                  __Aldata

.data               0x35fe          0x2
 .data              0x35fe          0x2 build/default/production/_ext/1639979382/button.o

.bss                0x3d9c          0x2
 .bss               0x3d9c          0x2 build/default/production/_ext/1639979382/sdcard.o

.data               0x3d9e          0x6
 .data              0x3d9e          0x2 build/default/production/_ext/1464792115/Encoder.o
                    0x3d9e                  _multiplier
 .data              0x3da0          0x2 build/default/production/_ext/1464792115/HdwrTest.o
                    0x3da0                  _enableMotor
 .data              0x3da2          0x2 c:/apps/microchip/xc16/v1.26/bin/bin/../../lib\liblega-c-elf.a(xgenld_cdfFnopsuxX.XXeo)

.bss                0x3da4          0x2
 .bss               0x3da4          0x2 c:/apps/microchip/xc16/v1.26/bin/bin/../../lib\liblega-c-elf.a(fclose.XXelo)

.data               0x3da6          0x6
 .data              0x3da6          0x2 c:/apps/microchip/xc16/v1.26/bin/bin/../../lib\liblega-c-elf.a(malloc.XXeo)
                    0x3da6                  __Size_block
 .data              0x3da8          0x2 c:/apps/microchip/xc16/v1.26/bin/bin/../../lib\liblega-c-elf.a(xgenld.XXeo)
 .data              0x3daa          0x2 c:/apps/microchip/xc16/v1.26/bin/bin/../../lib\liblega-pic30-elf.a(c30_uart.Leo)
                    0x3daa                  ___C30_UART

.bss                0x3dac          0x2
 .bss               0x3dac          0x2 c:/apps/microchip/xc16/v1.26/bin/bin/../../lib\liblega-pic30-elf.a(brk.Lelo)
                    0x3dac                  ___curbrk

.heap               0x3dae        0x200
 .heap              0x3dae        0x200 heap

.ivt._CNInterrupt
                    0x003a          0x2
 .ivt._CNInterrupt
                    0x003a          0x2 build/default/production/_ext/1639979382/button.o

.ivt._T5Interrupt
                    0x004c          0x2
 .ivt._T5Interrupt
                    0x004c          0x2 build/default/production/_ext/1639979382/button.o

.ivt._T2Interrupt
                    0x0022          0x2
 .ivt._T2Interrupt
                    0x0022          0x2 build/default/production/_ext/1639979382/camera.o

.ivt._T4Interrupt
                    0x004a          0x2
 .ivt._T4Interrupt
                    0x004a          0x2 build/default/production/_ext/1639979382/dateTime.o

.ivt._RTCCInterrupt
                    0x0090          0x2
 .ivt._RTCCInterrupt
                    0x0090          0x2 build/default/production/_ext/1639979382/dateTime.o

.ivt._U1RXInterrupt
                    0x002a          0x2
 .ivt._U1RXInterrupt
                    0x002a          0x2 build/default/production/_ext/1639979382/uart1.o

.ivt._U1TXInterrupt
                    0x002c          0x2
 .ivt._U1TXInterrupt
                    0x002c          0x2 build/default/production/_ext/1639979382/uart1.o

.ivt._U2RXInterrupt
                    0x0050          0x2
 .ivt._U2RXInterrupt
                    0x0050          0x2 build/default/production/_ext/1639979382/uart2.o

.ivt._U2TXInterrupt
                    0x0052          0x2
 .ivt._U2TXInterrupt
                    0x0052          0x2 build/default/production/_ext/1639979382/uart2.o

.ivt._U3RXInterrupt
                    0x00b8          0x2
 .ivt._U3RXInterrupt
                    0x00b8          0x2 build/default/production/_ext/1639979382/uart3.o

.ivt._U3TXInterrupt
                    0x00ba          0x2
 .ivt._U3TXInterrupt
                    0x00ba          0x2 build/default/production/_ext/1639979382/uart3.o

.ivt._USB1Interrupt
                    0x00c0          0x2
 .ivt._USB1Interrupt
                    0x00c0          0x2 build/default/production/_ext/1161263815/usb_device.o

.const              0xc346        0x82a load address 0x004346  
 .const             0xc346        0x15c build/default/production/_ext/1749136748/SD_support.o
                    0xc3a8                  _SDEventFile
                    0xc3fc                  _SDDataFile
                    0xc450                  _SDConfigFile
 .const             0xc4a2        0x10e build/default/production/_ext/1464792115/multiMotorDrivers.o
                    0xc4a2                  _FSFullStep
                    0xc4a4                  _FSHalfStep
                    0xc4a6                  _FSEncoder
 .const             0xc5b0         0xf2 build/default/production/_ext/1161263815/usb_descriptors.o
                    0xc5b0                  _device_dsc
                    0xc5c2                  _configDescriptor1
                    0xc624                  _sd000
                    0xc628                  _sd001
                    0xc662                  _sd002
                    0xc682                  _sd003
                    0xc698                  _USB_CD_Ptr
                    0xc69a                  _USB_SD_Ptr
 .const             0xc6a2         0xd6 build/default/production/_ext/1464792115/TempHumidPresDrivers.o
                    0xc6a2                  _THP_MaxSend
                    0xc6a3                  _THP_MaxRead
                    0xc6a4                  _THP_MinRegAddr
                    0xc6a5                  _THP_MaxRegAdsr
                    0xc6a6                  _THP_RdBufLen
                    0xc6a7                  _THP_Cfg1_Ofs
                    0xc6a8                  _THP_Cfg2_Ofs
                    0xc6a9                  _THP_Cfg3_Ofs
                    0xc6aa                  _THP_Cfg4_Ofs
                    0xc6ab                  _THP_Cmp1L1
                    0xc6ac                  _THP_Cmp1L2
                    0xc6ad                  _THP_Cmp1L3
                    0xc6ae                  _THP_Cmp1L4
                    0xc6af                  _THP_Cfg2L1
                    0xc6b0                  _THP_Cfg2L2
                    0xc6b1                  _THP_Cfg2L3
                    0xc6b2                  _THP_Cfg2L4
 .const             0xc778         0x78 build/default/production/_ext/1161271966/SD-SPI.o
                    0xc778                  _sdmmc_cmdtable
 .const             0xc7f0         0x76 build/default/production/_ext/1464792115/SensorDirviers.o
                    0xc7f0                  _BufLenOverflow
                    0xc7f2                  _StageNull
                    0xc7f4                  _Stage1
                    0xc7f6                  _Stage2
                    0xc7f8                  _Stage3
                    0xc7fa                  _Stage4
                    0xc7fc                  _Stage5
                    0xc7fe                  _Stage6
                    0xc800                  _Stage7
                    0xc802                  _Misc1
                    0xc804                  _Misc2
                    0xc806                  _Misc3
                    0xc808                  _Misc4
                    0xc80a                  _Misc5
                    0xc80c                  _Misc6
                    0xc80e                  _Misc7
                    0xc810                  _DrvrNull
                    0xc812                  _DrvrExtRTC
                    0xc814                  _DrvrIntRTC
                    0xc816                  _DrvrRedGrnBlu
                    0xc818                  _DrvrTemHumPrs
                    0xc81a                  _DrvrEncoder
                    0xc81c                  _DrvrRadiation
                    0xc81e                  _DrvrMotor
                    0xc820                  _DrvrNotAvail
 .const             0xc866         0x5a build/default/production/_ext/1639979382/dateTime.o
                    0xc892                  _dateTime
 .const             0xc8c0         0x44 build/default/production/_ext/1464792115/dateTime_RTC.o
 .const             0xc904         0x40 build/default/production/_ext/1639979382/usb.o
                    0xc904                  _inq_resp
                    0xc928                  _usb
 .const             0xc944         0x40 build/default/production/_ext/1464792115/PortBitDrivers.o
                    0xc944                  _portbitOn00
                    0xc946                  _portbitOn01
                    0xc948                  _portbitOn02
                    0xc94a                  _portbitOn03
                    0xc94c                  _portbitOn04
                    0xc94e                  _portbitOn05
                    0xc950                  _portbitOn06
                    0xc952                  _portbitOn07
                    0xc954                  _portbitOn08
                    0xc956                  _portbitOn09
                    0xc958                  _portbitOn10
                    0xc95a                  _portbitOn11
                    0xc95c                  _portbitOn12
                    0xc95e                  _portbitOn13
                    0xc960                  _portbitOn14
                    0xc962                  _portbitOn15
                    0xc964                  _portbitOf00
                    0xc966                  _portbitOf01
                    0xc968                  _portbitOf02
                    0xc96a                  _portbitOf03
                    0xc96c                  _portbitOf04
                    0xc96e                  _portbitOf05
                    0xc970                  _portbitOf06
                    0xc972                  _portbitOf07
                    0xc974                  _portbitOf08
                    0xc976                  _portbitOf09
                    0xc978                  _portbitOf10
                    0xc97a                  _portbitOf11
                    0xc97c                  _portbitOf12
                    0xc97e                  _portbitOf13
                    0xc980                  _portbitOf14
                    0xc982                  _portbitOf15
 .const             0xc984         0x34 build/default/production/_ext/1749136748/kernel18.o
 .const             0xc9b8         0x2c build/default/production/_ext/1639979382/file.o
                    0xc9bc                  _file1
                    0xc9c6                  _file2
                    0xc9d0                  _file3
                    0xc9da                  _NullFile
 .const             0xc9e4         0x26 build/default/production/_ext/1639979382/datalog.o
                    0xc9f0                  _dataLog
 .const             0xca0a         0x26 build/default/production/_ext/1749136748/kernel16.o
 .const             0xca30         0x20 build/default/production/_ext/1749136748/kernel14.o
 .const             0xca50         0x1c build/default/production/_ext/1639979382/powerDriver.o
                    0xca50                  _powerDriverA
                    0xca5e                  _powerDriverB
 .const             0xca6c         0x1a build/default/production/_ext/1161271966/FSIO.o
 .const             0xca86         0x16 build/default/production/_ext/1464792115/I2CDrivers.o
                    0xca86                  _ErrNull
                    0xca88                  _ErrStartBit
                    0xca8a                  _ErrSndAdWt
                    0xca8c                  _ErrSndStg
                    0xca8e                  _ErrRestart
                    0xca90                  _ErrSndAdRd
                    0xca92                  _ErrGetStg
                    0xca94                  _ErrStopBit
                    0xca96                  _ErrPing
                    0xca98                  _SBUFLEN
                    0xca9a                  _RBUFLEN
 .const             0xca9c         0x14 build/default/production/_ext/1639979382/camera.o
                    0xca9e                  _camera
 .const             0xcab0         0x14 build/default/production/_ext/1639979382/camera2.o
                    0xcab2                  _camera2
 .const             0xcac4         0x14 build/default/production/_ext/1749136748/kernel12.o
 .const             0xcad8         0x12 build/default/production/_ext/1639979382/resistiveSensors.o
                    0xcad8                  _resistiveSensors
 .const             0xcaea         0x12 build/default/production/_ext/1464792115/RedGreenBlueDrivers.o
                    0xcaea                  _RGB_MaxSend
                    0xcaeb                  _RGB_MaxRead
                    0xcaec                  _RGB_MinRegAddr
                    0xcaed                  _RGB_MaxRegAdsr
                    0xcaee                  _RGB_Cfg2L1
                    0xcaef                  _RGB_Cfg2L2
                    0xcaf0                  _RGB_Cfg2L3
                    0xcaf1                  _RGB_Cfg2L4
                    0xcaf2                  _RGB_Cfg2L5
                    0xcaf3                  _RGB_ClrIrqLR
                    0xcaf4                  _RGB_StatusLS
                    0xcaf5                  _RGB_StatusL1
                    0xcaf6                  _RGB_RdValL1
 .const             0xcafc         0x10 build/default/production/_ext/1639979382/uart1.o
                    0xcafc                  _uart1
 .const             0xcb0c         0x10 build/default/production/_ext/1639979382/uart2.o
                    0xcb0c                  _uart2
 .const             0xcb1c         0x10 build/default/production/_ext/1639979382/uart3.o
                    0xcb1c                  _uart3
 .const             0xcb2c          0xe build/default/production/_ext/1639979382/co2.o
                    0xcb2c                  _co2
 .const             0xcb3a          0xe build/default/production/_ext/1464792115/HdwrTest.o
 .const             0xcb48          0xa build/default/production/_ext/1639979382/button.o
                    0xcb48                  _button
 .const             0xcb52          0x8 build/default/production/_ext/1639979382/led.o
                    0xcb52                  _ledB
                    0xcb56                  _ledR
 .const             0xcb5a          0x8 build/default/production/_ext/1749136748/non_pwm_led.o
                    0xcb5a                  _led1
                    0xcb5e                  _led2
 .const             0xcb62          0x6 build/default/production/_ext/1639979382/system.o
                    0xcb62                  _system
 .const             0xcb68          0x4 build/default/production/_ext/1639979382/sdcard.o
                    0xcb68                  _sdcard
 .const             0xcb6c          0x2 build/default/production/_ext/1639979382/nesi.o
                    0xcb6c                  _nesi
 .const             0xcb6e          0x2 build/default/production/_ext/1464792115/NVMDrivers.o
                    0xcb6e                  _RTC_ADDR

.text             0x004b70      0x120b4
 .text            0x004b70       0x9e30 build/default/production/_ext/1161271966/FSIO.o
                  0x004b70                  _FSInit
                  0x004c2c                  _FILEfind
                  0x0058b2                  _FILEopen
                  0x0059f2                  _FILEget_next_cluster
                  0x005ad2                  _DISKmount
                  0x005b90                  _LoadMBR
                  0x005dee                  _LoadBootSector
                  0x006432                  _GetFullClusterNumber
                  0x00645a                  _FSCreateMBR
                  0x0066d4                  _FSformat
                  0x0079aa                  _Write_File_Entry
                  0x007a88                  _FAT_erase_cluster_chain
                  0x007b80                  _Cache_File_Entry
                  0x007dea                  _CreateFileEntry
                  0x00811c                  _CreateFirstCluster
                  0x008198                  _FindEmptyEntries
                  0x0082e6                  _PopulateEntries
                  0x0083b6                  _Alias_LFN_Object
                  0x0087ee                  _CacheTime
                  0x00892e                  _FILEallocate_new_cluster
                  0x0089ce                  _FATfindEmptyCluster
                  0x008ada                  _FSGetDiskProperties
                  0x008cce                  _FSfclose
                  0x008dd2                  _Fill_File_Object
                  0x008f32                  _Fill_LFN_Object
                  0x008fd0                  _LoadDirAttrib
                  0x009050                  _FILEerase
                  0x009176                  _FSrename
                  0x0092a2                  _wFSrename
                  0x0092be                  _wFSfopen
                  0x0092da                  _FSfopen
                  0x0096a6                  _FSftell
                  0x0096ba                  _FSremove
                  0x0097ee                  _wFSremove
                  0x009806                  _FSrewind
                  0x00983c                  _FSerror
                  0x009848                  _FileObjectCopy
                  0x00987e                  _FILECreateHeadCluster
                  0x00992e                  _EraseCluster
                  0x0099e8                  _ReadByte
                  0x0099f8                  _ReadWord
                  0x009a2c                  _ReadDWord
                  0x009a72                  _Cluster2Sector
                  0x009b52                  _FSattrib
                  0x009bf0                  _FSfwrite
                  0x009ece                  _flushData
                  0x009f28                  _FSfeof
                  0x009f50                  _FSfread
                  0x00a186                  _FormatFileName
                  0x00a588                  _FormatDirName
                  0x00aa12                  _ValidateChars
                  0x00ad12                  _FSfseek
                  0x00afa4                  _ReadFAT
                  0x00b3c0                  _WriteFAT
                  0x00b82a                  _FSchdir
                  0x00b83a                  _wFSchdir
                  0x00b858                  _chdirhelper
                  0x00bd26                  _FSgetcwd
                  0x00c412                  _wFSgetcwd
                  0x00c42e                  _GetPreviousEntry
                  0x00c758                  _FSmkdir
                  0x00c768                  _wFSmkdir
                  0x00c786                  _mkdirhelper
                  0x00cd4a                  _CreateDIR
                  0x00ce3c                  _writeDotEntries
                  0x00cfca                  _FSrmdir
                  0x00cfde                  _wFSrmdir
                  0x00d000                  _rmdirhelper
                  0x00d9f6                  _eraseDir
                  0x00da7c                  _FindFirst
                  0x00dcfc                  _FindNext
                  0x00df1c                  _wFindFirst
                  0x00df3c                  _FSputc
                  0x00df5a                  _str_put_n_chars
                  0x00df8c                  _FSfprintf
                  0x00dfa4                  _FSvfprintf
 .text            0x00e9a0       0x169c build/default/production/_ext/1464792115/dateTime_RTC.o
                  0x00fb32                  _getRTCTimeStamp
                  0x00fdd6                  _setI2C2_RTCTime
                  0x00feb6                  _getI2C2_RTCTime
                  0x00ff92                  _setPIC_RTCTime
 .text            0x01003c       0x156c build/default/production/_ext/1639979382/dateTime.o
                  0x010070                  _newCalendarAndClock
                  0x010b68                  _setSystemCalendarAndClock
                  0x010ca4                  _getSystemCalendarAndClock
                  0x010d4a                  _getMilisecondCount
                  0x010d56                  _Wait
                  0x010d8a                  __T4Interrupt
                  0x010dbc                  __RTCCInterrupt
                  0x010e10                  build/default/production/_ext/1639979382/dateTime.o:_initialize
                  0x010e74                  build/default/production/_ext/1639979382/dateTime.o:_newDateAndTime
                  0x0111ce                  build/default/production/_ext/1639979382/dateTime.o:_toDateAndTime
                  0x0111f8                  build/default/production/_ext/1639979382/dateTime.o:_addDateAndTimes
                  0x011248                  build/default/production/_ext/1639979382/dateTime.o:_subtractDateAndTimes
                  0x011298                  build/default/production/_ext/1639979382/dateTime.o:_getTimeStamp
                  0x011334                  build/default/production/_ext/1639979382/dateTime.o:_dateAndTimeToTimeStamp
                  0x011446                  build/default/production/_ext/1639979382/dateTime.o:_parseTimeStamp
                  0x0114a6                  build/default/production/_ext/1639979382/dateTime.o:_getDateAndTime
                  0x01150c                  build/default/production/_ext/1639979382/dateTime.o:_setDateAndTime
                  0x01154c                  _compareDateAndTime
 .text            0x0115a8        0xf64 build/default/production/_ext/1464792115/TempHumidPresDrivers.o
                  0x0115a8                  _THP_SetBuffer
                  0x0115d4                  _Combine2
                  0x01160a                  _Combine3
                  0x011678                  _THP_LoadConfigs
                  0x01177a                  _THP_compensate_T_int32
                  0x01184e                  _THP_compensate_P_int64
                  0x011b58                  _THP_compenstate_P_double
                  0x011d74                  _THP_compensate_H_int32
                  0x011f0c                  _compensate_H_double
                  0x012088                  _THP_LoadRawValues
                  0x012116                  _diagRecord
                  0x012418                  _initTHP
                  0x01245a                  _readTHP
 .text            0x01250c        0xf54 build/default/production/_ext/1161263815/usb_device.o
                  0x01250c                  _USBDeviceInit
                  0x0125fa                  __USB1Interrupt
                  0x0127b0                  _USBEnableEndpoint
                  0x0127ea                  _USBTransferOnePacket
                  0x012884                  _USBStallEndpoint
                  0x0128f4                  _USBCancelIO
                  0x0129a8                  _USBDeviceDetach
                  0x0129b6                  _USBDeviceAttach
                  0x0129e8                  _USBCtrlEPAllowStatusStage
                  0x012a50                  _USBCtrlEPAllowDataStage
 .text            0x013460        0xd9e build/default/production/_ext/1161263815/usb_function_msd.o
                  0x013460                  _USBMSDInit
                  0x0134f8                  _USBCheckMSDRequest
                  0x0135d2                  _MSDTasks
                  0x0137d6                  _MSDProcessCommand
                  0x013862                  _MSDProcessCommandMediaAbsent
                  0x0138c8                  _MSDProcessCommandMediaPresent
                  0x013bb2                  _MSDReadHandler
                  0x013d44                  _MSDWriteHandler
                  0x013f56                  _ResetSenseData
                  0x014000                  _MSDCheckForErrorCases
                  0x0140fe                  _MSDErrorHandler
 .text            0x0141fe        0xaf8 build/default/production/_ext/1161271966/SD-SPI.o
                  0x0141fe                  _MDD_SDSPI_MediaDetect
                  0x014214                  _MDD_SDSPI_ReadSectorSize
                  0x01421c                  _MDD_SDSPI_ReadCapacity
                  0x014226                  _MDD_SDSPI_InitIO
                  0x014234                  _MDD_SDSPI_ShutdownMedia
                  0x014240                  _SendMMCCmd
                  0x014362                  _MDD_SDSPI_SectorRead
                  0x0143a6                  _MDD_SDSPI_AsyncReadTasks
                  0x014582                  _MDD_SDSPI_AsyncWriteTasks
                  0x0147dc                  _MDD_SDSPI_SectorWrite
                  0x014838                  _MDD_SDSPI_WriteProtectState
                  0x014844                  _Delayms
                  0x01488c                  _CloseSPIM
                  0x01489a                  _WriteSPIM
                  0x0148b8                  _MDD_SDSPI_ReadMedia
                  0x0148d0                  _OpenSPIM
                  0x0148ee                  _InitSPISlowMode
                  0x014944                  _MDD_SDSPI_MediaInitialize
 .text            0x014cf6        0xa6c build/default/production/_ext/1464792115/multiMotorDrivers.o
                  0x014cf6                  _initStepper
                  0x014de0                  _setOnStepDisable
                  0x014dec                  _setOffStepDisable
                  0x014df8                  _setOnStepDirection
                  0x014e04                  _setOffStepDirection
                  0x014e10                  _setOnHalfStep
                  0x014e1c                  _setOffHalfStep
                  0x014e28                  _ErrorCheck
                  0x014f84                  _positionPattern
                  0x015146                  _MotorStepper
                  0x0152b0                  _checkMotor
                  0x01548c                  _multiMotorMove
                  0x01564e                  _moveCarousel
                  0x0156de                  _checkCarousel
 .text            0x015762        0x58c build/default/production/_ext/1464792115/PortBitDrivers.o
                  0x015762                  _Read_Switch_Align
                  0x015794                  _Read_Switch_Home
                  0x0157c2                  _setOutputCam1
                  0x0157f2                  _setOnCam1
                  0x0157fc                  _setOffCam1
                  0x015806                  _initializeCam1
                  0x01580c                  _setOutputCam2
                  0x01583c                  _setOnCam2
                  0x015846                  _setOffCam2
                  0x015850                  _initializeCam2
                  0x015856                  _setOutputLED1
                  0x0158ae                  _setOnLED1
                  0x0158b8                  _setOffLED1
                  0x0158c2                  _initializeLED1
                  0x0158c8                  _setOutputLED2
                  0x015920                  _setOnLED2
                  0x01592a                  _setOffLED2
                  0x015934                  _initializeLED2
                  0x01593a                  _setOutputServo
                  0x01596a                  _setOnServo
                  0x015974                  _setOffServo
                  0x01597e                  _initializeServo
                  0x015984                  _setOutputMotCW
                  0x0159b6                  _setOnMotCW
                  0x0159c0                  _setOffMotCW
                  0x0159ca                  _initializeMotCW
                  0x0159d0                  _setOutputMotCCW
                  0x015a02                  _setOnMotCCW
                  0x015a0c                  _setOffMotCCW
                  0x015a16                  _initializeMotCCW
                  0x015a1c                  _setOutputMotEna
                  0x015a4e                  _setOnMotEna
                  0x015a58                  _setOffMotEna
                  0x015a62                  _initializeMotEna
                  0x015a68                  _setOutput6Volt
                  0x015a98                  _setOn6Volt
                  0x015aa2                  _setOff6Volt
                  0x015aac                  _initialize6Volt
                  0x015ab2                  _setOutputDiag
                  0x015ae4                  _setOnDiag
                  0x015aee                  _setOffDiag
                  0x015af8                  _initializeDiag
                  0x015afe                  _setOutputMotorEn
                  0x015b30                  _setOnMotorEn
                  0x015b3a                  _setOffMotorEn
                  0x015b44                  _initializeMotorEn
                  0x015b4a                  _setOutputRG9
                  0x015b7c                  _setOnRG9
                  0x015b86                  _setOffRG9
                  0x015b90                  _initializeRG9
                  0x015b96                  _setUart1Tx
                  0x015bec                  _setUart1Rx
                  0x015c42                  _setUart2Tx
                  0x015c98                  _setUart2Rx
 .text            0x015cee        0x56e build/default/production/_ext/1464792115/I2CDrivers.o
                  0x015cee                  _i2c2_init
                  0x015d0e                  _i2c2_reset_bus
                  0x015d3a                  _i2c2_start
                  0x015d66                  _i2c2_restart
                  0x015dbc                  _i2c2_stop
                  0x015e1c                  _i2c2_send_addr_rd
                  0x015e36                  _i2c2_send_addr_wt
                  0x015e50                  _i2c2_send_byte_ack
                  0x015ec8                  _i2c2_read_byte_ack
                  0x015f62                  _i2c2_send_string
                  0x015faa                  _i2c2_read_string
                  0x01601e                  _i2c2_Diag_Report
                  0x016066                  _i2c2_Diag_Clear
                  0x0160b4                  _i2c2_TalkToDevice
 .text            0x01625c        0x4ee build/default/production/_ext/1639979382/camera.o
                  0x01628a                  __T2Interrupt
                  0x0166c6                  build/default/production/_ext/1639979382/camera.o:_turnOff
                  0x0166d0                  build/default/production/_ext/1639979382/camera.o:_turnOn
                  0x0166da                  build/default/production/_ext/1639979382/camera.o:_initialize
                  0x0166f0                  build/default/production/_ext/1639979382/camera.o:_retrievePic
                  0x016742                  _getStatus
 .text            0x01674a        0x4da build/default/production/_ext/1639979382/camera2.o
                  0x016ba0                  build/default/production/_ext/1639979382/camera2.o:_turnOff2
                  0x016baa                  build/default/production/_ext/1639979382/camera2.o:_turnOn2
                  0x016bb4                  build/default/production/_ext/1639979382/camera2.o:_initialize2
                  0x016bca                  build/default/production/_ext/1639979382/camera2.o:_retrievePic2
                  0x016c1c                  _getStatus2

.dinit            0x016c24        0x44c
 .dinit           0x016c24        0x44c data_init

.text             0x017070       0x35b8
 .text            0x017070        0x42a build/default/production/_ext/1464792115/Encoder.o
                  0x017070                  _initEncoder
                  0x0170c2                  _readEncoder
                  0x0173a2                  _monitorEncoder
                  0x017402                  _calibrateEncoder
 .text            0x01749a        0x3dc build/default/production/_ext/1161263815/usb_function_cdc.o
                  0x01749a                  _USBCheckCDCRequest
                  0x01759c                  _CDCInitEP
                  0x0175ea                  _USBCDCEventHandler
                  0x01762c                  _getsUSBUSART
                  0x0176a0                  _putUSBUSART
                  0x0176cc                  _putsUSBUSART
                  0x017722                  _putrsUSBUSART
                  0x017778                  _CDCTxService
 .text            0x017876        0x356 build/default/production/_ext/1749136748/SD_support.o
                  0x0178ee                  build/default/production/_ext/1749136748/SD_support.o:_write1
                  0x01790e                  build/default/production/_ext/1749136748/SD_support.o:_write2
                  0x01792e                  build/default/production/_ext/1749136748/SD_support.o:_write3
                  0x01794e                  build/default/production/_ext/1749136748/SD_support.o:_writeln1
                  0x01796a                  build/default/production/_ext/1749136748/SD_support.o:_writeln2
                  0x017986                  build/default/production/_ext/1749136748/SD_support.o:_writeln3
                  0x017b8c                  _get1
                  0x017ba8                  _CheckFile
 .text            0x017bcc        0x2fe build/default/production/_ext/1464792115/RadiationSensorDriver.o
                  0x017bcc                  _initRadiation
                  0x017c54                  _readRadiation
                  0x017d22                  _readRad
                  0x017e76                  _initRad
 .text            0x017eca        0x2d6 build/default/production/_ext/1639979382/uart1.o
                  0x017eca                  build/default/production/_ext/1639979382/uart1.o:_initUart
                  0x017f6a                  build/default/production/_ext/1639979382/uart1.o:_getRxSize
                  0x017fa4                  __U1RXInterrupt
                  0x017fe6                  __U1TXInterrupt
                  0x01801c                  build/default/production/_ext/1639979382/uart1.o:_sendFrom
                  0x01808a                  build/default/production/_ext/1639979382/uart1.o:_setBaudRate
                  0x0180a8                  build/default/production/_ext/1639979382/uart1.o:_copyFrom
                  0x018112                  build/default/production/_ext/1639979382/uart1.o:_receiveFrom
                  0x018168                  build/default/production/_ext/1639979382/uart1.o:_dropFrom
                  0x018196                  build/default/production/_ext/1639979382/uart1.o:_flush
 .text            0x0181a0        0x2d6 build/default/production/_ext/1639979382/uart3.o
                  0x0181a0                  build/default/production/_ext/1639979382/uart3.o:_initUart
                  0x018240                  build/default/production/_ext/1639979382/uart3.o:_getRxSize
                  0x01827a                  __U3RXInterrupt
                  0x0182bc                  __U3TXInterrupt
                  0x0182f2                  build/default/production/_ext/1639979382/uart3.o:_sendFrom
                  0x018360                  build/default/production/_ext/1639979382/uart3.o:_setBaudRate
                  0x01837e                  build/default/production/_ext/1639979382/uart3.o:_copyFrom
                  0x0183e8                  build/default/production/_ext/1639979382/uart3.o:_receiveFrom
                  0x01843e                  build/default/production/_ext/1639979382/uart3.o:_dropFrom
                  0x01846c                  build/default/production/_ext/1639979382/uart3.o:_flush
 .text            0x018476        0x2d4 build/default/production/_ext/1639979382/uart2.o
                  0x018476                  build/default/production/_ext/1639979382/uart2.o:_initUart
                  0x018514                  build/default/production/_ext/1639979382/uart2.o:_getRxSize
                  0x01854e                  __U2RXInterrupt
                  0x018590                  __U2TXInterrupt
                  0x0185c6                  build/default/production/_ext/1639979382/uart2.o:_sendFrom
                  0x018634                  build/default/production/_ext/1639979382/uart2.o:_setBaudRate
                  0x018652                  build/default/production/_ext/1639979382/uart2.o:_copyFrom
                  0x0186bc                  build/default/production/_ext/1639979382/uart2.o:_receiveFrom
                  0x018712                  build/default/production/_ext/1639979382/uart2.o:_dropFrom
                  0x018740                  build/default/production/_ext/1639979382/uart2.o:_flush
 .text            0x01874a        0x2be build/default/production/_ext/1464792115/HdwrTest.o
                  0x01874a                  _HdwrTest
 .text            0x018a08        0x2a4 build/default/production/_ext/1464792115/Analog2digital.o
                  0x018a08                  _readQ1
                  0x018a26                  _readQ2
                  0x018a46                  _readQ3
                  0x018a66                  _readQ4
                  0x018a86                  _readC10
                  0x018c6e                  _initA2D
                  0x018c88                  _unused_Calls
 .text            0x018cac        0x2a2 build/default/production/_ext/1639979382/file.o
                  0x018cac                  build/default/production/_ext/1639979382/file.o:_close1
                  0x018cd6                  build/default/production/_ext/1639979382/file.o:_open1
                  0x018cf8                  build/default/production/_ext/1639979382/file.o:_write1
                  0x018d12                  build/default/production/_ext/1639979382/file.o:_read1
                  0x018d48                  build/default/production/_ext/1639979382/file.o:_free1
                  0x018d64                  build/default/production/_ext/1639979382/file.o:_close2
                  0x018d8e                  build/default/production/_ext/1639979382/file.o:_open2
                  0x018db0                  build/default/production/_ext/1639979382/file.o:_write2
                  0x018dca                  build/default/production/_ext/1639979382/file.o:_read2
                  0x018e00                  build/default/production/_ext/1639979382/file.o:_free2
                  0x018e1c                  build/default/production/_ext/1639979382/file.o:_close3
                  0x018e46                  build/default/production/_ext/1639979382/file.o:_open3
                  0x018e68                  build/default/production/_ext/1639979382/file.o:_write3
                  0x018e82                  build/default/production/_ext/1639979382/file.o:_read3
                  0x018eb8                  build/default/production/_ext/1639979382/file.o:_free3
                  0x018ed4                  _getFileStream
 .text            0x018f4e        0x26e build/default/production/_ext/1464792115/SensorDirviers.o
                  0x018f4e                  _initSensors
                  0x019030                  _readSensors
                  0x01911e                  _formatSensors
                  0x0191a0                  _errorSensors
 .text            0x0191bc        0x260 build/default/production/_ext/1464792115/RedGreenBlueDrivers.o
                  0x0191bc                  _initRGB
                  0x0192a4                  _RGB_Configure2
                  0x01934e                  _RGB_ClearIrqs
                  0x019370                  _RGB_ReadStatus
                  0x019396                  _readRGB
 .text            0x01941c        0x210 build/default/production/_ext/1639979382/usb.o
                  0x01941c                  build/default/production/_ext/1639979382/usb.o:_ProcessIO
                  0x019440                  _USBCBSuspend
                  0x019446                  _USBCBWakeFromSuspend
                  0x01944c                  _USBCB_SOF_Handler
                  0x019454                  _USBCBErrorHandler
                  0x01945a                  _USBCBCheckOtherReq
                  0x019468                  _USBCBStdSetDscHandler
                  0x01946e                  _USBCBInitEP
                  0x019484                  _USBCBSendResume
                  0x0194c6                  _USER_USB_CALLBACK_EVENT_HANDLER
                  0x01956a                  build/default/production/_ext/1639979382/usb.o:_getState
                  0x019574                  build/default/production/_ext/1639979382/usb.o:_putUSB
                  0x019594                  build/default/production/_ext/1639979382/usb.o:_printUSB
                  0x0195b0                  build/default/production/_ext/1639979382/usb.o:_printfUSB
                  0x0195da                  build/default/production/_ext/1639979382/usb.o:_setDebugPrintState
                  0x0195ee                  build/default/production/_ext/1639979382/usb.o:_debugPrintfUSB
                  0x01961e                  build/default/production/_ext/1639979382/usb.o:_initialize
 .text            0x01962c        0x1f4 build/default/production/_ext/1639979382/resistiveSensors.o
                  0x01962c                  build/default/production/_ext/1639979382/resistiveSensors.o:_readQ1
                  0x01964a                  build/default/production/_ext/1639979382/resistiveSensors.o:_readQ2
                  0x01966a                  build/default/production/_ext/1639979382/resistiveSensors.o:_readQ3
                  0x01968a                  build/default/production/_ext/1639979382/resistiveSensors.o:_readQ4
                  0x0196aa                  build/default/production/_ext/1639979382/resistiveSensors.o:_sampleQ1
                  0x019702                  build/default/production/_ext/1639979382/resistiveSensors.o:_sampleQ2
                  0x01975a                  build/default/production/_ext/1639979382/resistiveSensors.o:_sampleQ3
                  0x0197b2                  build/default/production/_ext/1639979382/resistiveSensors.o:_sampleQ4
                  0x01980a                  build/default/production/_ext/1639979382/resistiveSensors.o:_initialize
 .text            0x019820        0x188 build/default/production/_ext/1464792115/NVMDrivers.o
                  0x019820                  _readNVM
                  0x019860                  _writeNVM
                  0x0198c4                  _initBuffer
                  0x0198ec                  _setBuffer
                  0x01991a                  _compareBuffer
                  0x019952                  _TestNVM
 .text            0x0199a8        0x17a build/default/production/_ext/1749136748/kernel18.o
                  0x0199a8                  _replaceColonWithPeriod
                  0x0199cc                  _handleSensor
                  0x0199e0                  _run_experiment
                  0x019a80                  _init_experiment
                  0x019ab4                  _shutdown_experiment
                  0x019ac6                  _kernel18
 .text            0x019b22        0x15e build/default/production/_ext/1464792115/OptoDrivers.o
                  0x019b22                  _readOptos
 .text            0x019c80        0x142 build/default/production/_ext/1639979382/led.o
                  0x019c80                  build/default/production/_ext/1639979382/led.o:_initPwm1
                  0x019cd6                  build/default/production/_ext/1639979382/led.o:_setPwm1DutyCycle
                  0x019d20                  build/default/production/_ext/1639979382/led.o:_initPwm2
                  0x019d78                  build/default/production/_ext/1639979382/led.o:_setPwm2DutyCycle
 .text            0x019dc2        0x12a build/default/production/_ext/1639979382/button.o
                  0x019dc2                  build/default/production/_ext/1639979382/button.o:_readInput
                  0x019dd6                  build/default/production/_ext/1639979382/button.o:_initialize
                  0x019e1a                  __CNInterrupt
                  0x019e7a                  build/default/production/_ext/1639979382/button.o:_getKeystroke
                  0x019e8a                  build/default/production/_ext/1639979382/button.o:_enableKeystroke
                  0x019e96                  build/default/production/_ext/1639979382/button.o:_disableKeystroke
                  0x019eae                  __T5Interrupt
 .text            0x019eec         0xe2 build/default/production/_ext/1639979382/powerDriver.o
                  0x019eec                  build/default/production/_ext/1639979382/powerDriver.o:_setOutputA
                  0x019f0c                  build/default/production/_ext/1639979382/powerDriver.o:_setOnA
                  0x019f16                  build/default/production/_ext/1639979382/powerDriver.o:_setOffA
                  0x019f20                  build/default/production/_ext/1639979382/powerDriver.o:_initializeA
                  0x019f26                  build/default/production/_ext/1639979382/powerDriver.o:_readInputA
                  0x019f36                  build/default/production/_ext/1639979382/powerDriver.o:_failureA
                  0x019f62                  build/default/production/_ext/1639979382/powerDriver.o:_isOkA
                  0x019f72                  build/default/production/_ext/1639979382/powerDriver.o:_setOutputB
                  0x019f90                  build/default/production/_ext/1639979382/powerDriver.o:_setOnB
                  0x019f9a                  build/default/production/_ext/1639979382/powerDriver.o:_setOffB
                  0x019fa4                  build/default/production/_ext/1639979382/powerDriver.o:_initializeB
                  0x019faa                  build/default/production/_ext/1639979382/powerDriver.o:_readInputB
                  0x019fb2                  build/default/production/_ext/1639979382/powerDriver.o:_failureB
                  0x019fbe                  build/default/production/_ext/1639979382/powerDriver.o:_isOkB
 .text            0x019fce         0xd6 build/default/production/_ext/1639979382/co2.o
                  0x019fce                  build/default/production/_ext/1639979382/co2.o:_readValue
                  0x019fee                  build/default/production/_ext/1639979382/co2.o:_setHeaterOutput
                  0x01a00e                  build/default/production/_ext/1639979382/co2.o:_turnOff
                  0x01a01c                  build/default/production/_ext/1639979382/co2.o:_turnOn
                  0x01a02a                  build/default/production/_ext/1639979382/co2.o:_getReading
                  0x01a082                  build/default/production/_ext/1639979382/co2.o:_readTest
                  0x01a092                  build/default/production/_ext/1639979382/co2.o:_initialize
 .text            0x01a0a4         0xc4 build/default/production/_ext/1749136748/main.o
                  0x01a0a4                  _main
 .text            0x01a168         0xc0 build/default/production/_ext/1639979382/datalog.o
                  0x01a168                  build/default/production/_ext/1639979382/datalog.o:_initialize
                  0x01a18e                  build/default/production/_ext/1639979382/datalog.o:_isInitialized
                  0x01a19e                  build/default/production/_ext/1639979382/datalog.o:_logValue
 .text            0x01a228         0xc0 build/default/production/_ext/1749136748/kernel16.o
                  0x01a228                  _takePicture
                  0x01a282                  _fixcolons
                  0x01a2a6                  _kernel16
 .text            0x01a2e8         0xb4 build/default/production/_ext/1639979382/system.o
                  0x01a35e                  build/default/production/_ext/1639979382/system.o:_initialize
                  0x01a388                  build/default/production/_ext/1639979382/system.o:_disable6volt
                  0x01a392                  build/default/production/_ext/1639979382/system.o:_enable6volt
 .text            0x01a39c         0xb4 build/default/production/_ext/1749136748/non_pwm_led.o
                  0x01a3e2                  build/default/production/_ext/1749136748/non_pwm_led.o:_setOnLED1
                  0x01a3ec                  build/default/production/_ext/1749136748/non_pwm_led.o:_setOffLED1
                  0x01a43c                  build/default/production/_ext/1749136748/non_pwm_led.o:_setOnLED2
                  0x01a446                  build/default/production/_ext/1749136748/non_pwm_led.o:_setOffLED2
 .text            0x01a450         0x84 build/default/production/_ext/1749136748/kernel12.o
                  0x01a450                  _kernel12
 .text            0x01a4d4         0x7a build/default/production/_ext/1639979382/sdcard.o
                  0x01a4d4                  build/default/production/_ext/1639979382/sdcard.o:_initialize
                  0x01a546                  build/default/production/_ext/1639979382/sdcard.o:_isInitialized
 .text            0x01a54e         0x6c build/default/production/_ext/1749136748/kernel17.o
                  0x01a54e                  _kernel17
 .text            0x01a5ba         0x3c build/default/production/_ext/1639979382/nesi.o
                  0x01a5ba                  build/default/production/_ext/1639979382/nesi.o:_initialize
 .text            0x01a5f6         0x32 build/default/production/_ext/1749136748/kernel14.o
                  0x01a5f6                  _kernel14

.init.delay32     0x01a628         0x1c
 .init.delay32    0x01a628         0x1c c:/apps/microchip/xc16/v1.26/bin/bin/../../lib\liblega-pic30-elf.a(delay32.Leo)
                  0x01a628                  ___delay32

.text             0x01a644         0x36
 .text            0x01a644         0x18 build/default/production/_ext/1749136748/kernel13.o
                  0x01a644                  _kernel13
 .text            0x01a65c         0x10 build/default/production/_ext/1749136748/kernel19.o
                  0x01a65c                  _kernel19
 .text            0x01a66c          0xe build/default/production/_ext/1749136748/kernel15.o
                  0x01a66c                  _kernel15

.shared.dinit     0x01a67a          0x2
 .shared.dinit    0x01a67a          0x2 shared_data_init
